; Listing generated by Microsoft (R) Optimizing Compiler Version 19.00.24215.1 

	TITLE	c:\home\programming\mathter\main.cpp
	.686P
	.XMM
	include listing.inc
	.model	flat

INCLUDELIB OLDNAMES

PUBLIC	??_C@_0BD@OLBABOEK@vector?$DMT?$DO?5too?5long?$AA@ ; `string'
EXTRN	__imp_?rdstate@ios_base@std@@QBEHXZ:PROC
EXTRN	__imp_?good@ios_base@std@@QBE_NXZ:PROC
EXTRN	__imp_?flags@ios_base@std@@QBEHXZ:PROC
EXTRN	__imp_?width@ios_base@std@@QBE_JXZ:PROC
EXTRN	__imp_?width@ios_base@std@@QAE_J_J@Z:PROC
EXTRN	__imp_??6?$basic_ostream@DU?$char_traits@D@std@@@std@@QAEAAV01@N@Z:PROC
EXTRN	__imp_??6?$basic_ostream@DU?$char_traits@D@std@@@std@@QAEAAV01@M@Z:PROC
EXTRN	__imp_??6?$basic_ostream@DU?$char_traits@D@std@@@std@@QAEAAV01@P6AAAV01@AAV01@@Z@Z:PROC
EXTRN	__imp_?fill@?$basic_ios@DU?$char_traits@D@std@@@std@@QBEDXZ:PROC
EXTRN	__imp_?rdbuf@?$basic_ios@DU?$char_traits@D@std@@@std@@QBEPAV?$basic_streambuf@DU?$char_traits@D@std@@@2@XZ:PROC
EXTRN	__imp_?setstate@?$basic_ios@DU?$char_traits@D@std@@@std@@QAEXH_N@Z:PROC
EXTRN	__imp_?flush@?$basic_ostream@DU?$char_traits@D@std@@@std@@QAEAAV12@XZ:PROC
EXTRN	__imp_?_Osfx@?$basic_ostream@DU?$char_traits@D@std@@@std@@QAEXXZ:PROC
EXTRN	__imp_?tie@?$basic_ios@DU?$char_traits@D@std@@@std@@QBEPAV?$basic_ostream@DU?$char_traits@D@std@@@2@XZ:PROC
EXTRN	__imp_?sputc@?$basic_streambuf@DU?$char_traits@D@std@@@std@@QAEHD@Z:PROC
EXTRN	__imp_?put@?$basic_ostream@DU?$char_traits@D@std@@@std@@QAEAAV12@D@Z:PROC
EXTRN	__imp_?sputn@?$basic_streambuf@DU?$char_traits@D@std@@@std@@QAE_JPBD_J@Z:PROC
EXTRN	__imp_?widen@?$basic_ios@DU?$char_traits@D@std@@@std@@QBEDD@Z:PROC
EXTRN	__imp___invalid_parameter_noinfo_noreturn:PROC
EXTRN	__imp___Query_perf_counter:PROC
EXTRN	__imp____std_terminate:PROC
EXTRN	??3@YAXPAX@Z:PROC				; operator delete
EXTRN	__imp_?_Xlength_error@std@@YAXPBD@Z:PROC
EXTRN	__imp_?_Xbad_alloc@std@@YAXXZ:PROC
EXTRN	__imp_?uncaught_exception@std@@YA_NXZ:PROC
EXTRN	__imp_?cout@std@@3V?$basic_ostream@DU?$char_traits@D@std@@@1@A:BYTE
EXTRN	__imp___Query_perf_frequency:PROC
EXTRN	??2@YAPAXI@Z:PROC				; operator new
EXTRN	@__security_check_cookie@4:PROC
;	COMDAT ??_C@_0BD@OLBABOEK@vector?$DMT?$DO?5too?5long?$AA@
CONST	SEGMENT
??_C@_0BD@OLBABOEK@vector?$DMT?$DO?5too?5long?$AA@ DB 'vector<T> too long'
	DB	00H						; `string'
$SG4294967241 DB '{', 00H
$SG4294967240 DB 00H
$SG4294967199 DB 00H
$SG4294967239 DB 09H, 00H
$SG4294967195 DB 00H
$SG4294967191 DB 00H
$SG4294967238 DB '}', 0aH, 00H
$SG4294967187 DB 00H
$SG4294967237 DB ' x ', 00H
$SG4294967236 DB ' = ', 00H
$SG4294967235 DB ' & ', 00H
$SG4294967234 DB ' ms', 00H
$SG4294967233 DB 'time 2x2 x 2x2:', 09H, 00H
$SG4294967183 DB 00H
$SG4294967179 DB 00H
	ORG $+1
$SG4294967232 DB ' ms', 00H
$SG4294967231 DB 'time 3x3 x 3x3:', 09H, 00H
	ORG $+3
$SG4294967230 DB ' ms', 00H
$SG4294967229 DB 'time 4x4 x 4x4:', 09H, 00H
	ORG $+3
$SG4294967228 DB ' ms', 00H
$SG4294967227 DB 'time 4x2 x 2x4:', 09H, 00H
	ORG $+3
$SG4294967226 DB ' ms', 00H
$SG4294967225 DB 'time 2x4 x 4x2:', 09H, 00H
	ORG $+3
$SG4294967224 DB ' ms', 00H
$SG4294967223 DB 'time 4x3 x 3x4:', 09H, 00H
	ORG $+3
$SG4294967222 DB ' ms', 00H
$SG4294967221 DB 'time 3x4 x 4x3:', 09H, 00H
	ORG $+3
$SG4294967200 DB '{', 00H
	ORG $+2
$SG4294967198 DB 09H, 00H
	ORG $+2
$SG4294967197 DB '}', 00H
	ORG $+2
$SG4294967196 DB '{', 00H
	ORG $+2
$SG4294967194 DB 09H, 00H
	ORG $+2
$SG4294967193 DB '}', 0aH, 00H
	ORG $+1
$SG4294967192 DB '{', 00H
	ORG $+2
$SG4294967190 DB 09H, 00H
	ORG $+2
$SG4294967189 DB '}', 0aH, 00H
	ORG $+1
$SG4294967188 DB '{', 00H
	ORG $+2
$SG4294967186 DB 09H, 00H
	ORG $+2
$SG4294967185 DB '}', 0aH, 00H
	ORG $+1
$SG4294967184 DB '{', 00H
	ORG $+2
$SG4294967182 DB 09H, 00H
	ORG $+2
$SG4294967181 DB '}', 0aH, 00H
	ORG $+1
$SG4294967180 DB '{', 00H
	ORG $+2
$SG4294967178 DB 09H, 00H
	ORG $+2
$SG4294967177 DB '}', 0aH, 00H
CONST	ENDS
PUBLIC	??$Assign@$06H$$V@?$AssignHelper@$07@?$Vector@M$07@@SAXAAV1@ABH@Z ; Vector<float,8>::AssignHelper<8>::Assign<7,int>
PUBLIC	??$Assign@$05HH@?$AssignHelper@$07@?$Vector@M$07@@SAXAAV1@ABH1@Z ; Vector<float,8>::AssignHelper<8>::Assign<6,int,int>
PUBLIC	??$Assign@$04HHH@?$AssignHelper@$07@?$Vector@M$07@@SAXAAV1@ABH11@Z ; Vector<float,8>::AssignHelper<8>::Assign<5,int,int,int>
PUBLIC	??$Assign@$03HHHH@?$AssignHelper@$07@?$Vector@M$07@@SAXAAV1@ABH111@Z ; Vector<float,8>::AssignHelper<8>::Assign<4,int,int,int,int>
PUBLIC	??0?$MatrixData@M$03$02$00@@QAE@XZ		; MatrixData<float,4,3,1>::MatrixData<float,4,3,1>
PUBLIC	??0?$MatrixOps@M$03$02$00$0A@@@QAE@XZ		; MatrixOps<float,4,3,1,0>::MatrixOps<float,4,3,1,0>
PUBLIC	??0?$Matrix@M$03$02$00@@QAE@XZ			; Matrix<float,4,3,1>::Matrix<float,4,3,1>
PUBLIC	??0?$MatrixData@M$02$03$00@@QAE@XZ		; MatrixData<float,3,4,1>::MatrixData<float,3,4,1>
PUBLIC	??0?$MatrixOps@M$02$03$00$0A@@@QAE@XZ		; MatrixOps<float,3,4,1,0>::MatrixOps<float,3,4,1,0>
PUBLIC	??0?$Matrix@M$02$03$00@@QAE@XZ			; Matrix<float,3,4,1>::Matrix<float,3,4,1>
PUBLIC	??$construct@V?$Matrix@M$01$01$00@@$$V@?$allocator@V?$Matrix@M$01$01$00@@@std@@QAEXPAV?$Matrix@M$01$01$00@@@Z ; std::allocator<Matrix<float,2,2,1> >::construct<Matrix<float,2,2,1> >
PUBLIC	??$construct@V?$Matrix@M$02$02$00@@$$V@?$allocator@V?$Matrix@M$02$02$00@@@std@@QAEXPAV?$Matrix@M$02$02$00@@@Z ; std::allocator<Matrix<float,3,3,1> >::construct<Matrix<float,3,3,1> >
PUBLIC	??$construct@V?$Matrix@M$03$03$00@@$$V@?$allocator@V?$Matrix@M$03$03$00@@@std@@QAEXPAV?$Matrix@M$03$03$00@@@Z ; std::allocator<Matrix<float,4,4,1> >::construct<Matrix<float,4,4,1> >
PUBLIC	??$construct@V?$Matrix@M$03$01$00@@$$V@?$allocator@V?$Matrix@M$03$01$00@@@std@@QAEXPAV?$Matrix@M$03$01$00@@@Z ; std::allocator<Matrix<float,4,2,1> >::construct<Matrix<float,4,2,1> >
PUBLIC	??$construct@V?$Matrix@M$01$03$00@@$$V@?$allocator@V?$Matrix@M$01$03$00@@@std@@QAEXPAV?$Matrix@M$01$03$00@@@Z ; std::allocator<Matrix<float,2,4,1> >::construct<Matrix<float,2,4,1> >
PUBLIC	??$construct@V?$Matrix@M$03$02$00@@$$V@?$allocator@V?$Matrix@M$03$02$00@@@std@@QAEXPAV?$Matrix@M$03$02$00@@@Z ; std::allocator<Matrix<float,4,3,1> >::construct<Matrix<float,4,3,1> >
PUBLIC	??$construct@V?$Matrix@M$02$03$00@@$$V@?$allocator@V?$Matrix@M$02$03$00@@@std@@QAEXPAV?$Matrix@M$02$03$00@@@Z ; std::allocator<Matrix<float,3,4,1> >::construct<Matrix<float,3,4,1> >
PUBLIC	??$Assign@$02HHHHH@?$AssignHelper@$07@?$Vector@M$07@@SAXAAV1@ABH1111@Z ; Vector<float,8>::AssignHelper<8>::Assign<3,int,int,int,int,int>
PUBLIC	??$construct@V?$Matrix@M$01$01$00@@$$V@?$allocator_traits@V?$allocator@V?$Matrix@M$01$01$00@@@std@@@std@@SAXAAV?$allocator@V?$Matrix@M$01$01$00@@@1@PAV?$Matrix@M$01$01$00@@@Z ; std::allocator_traits<std::allocator<Matrix<float,2,2,1> > >::construct<Matrix<float,2,2,1> >
PUBLIC	??$construct@V?$Matrix@M$02$02$00@@$$V@?$allocator_traits@V?$allocator@V?$Matrix@M$02$02$00@@@std@@@std@@SAXAAV?$allocator@V?$Matrix@M$02$02$00@@@1@PAV?$Matrix@M$02$02$00@@@Z ; std::allocator_traits<std::allocator<Matrix<float,3,3,1> > >::construct<Matrix<float,3,3,1> >
PUBLIC	??$construct@V?$Matrix@M$03$03$00@@$$V@?$allocator_traits@V?$allocator@V?$Matrix@M$03$03$00@@@std@@@std@@SAXAAV?$allocator@V?$Matrix@M$03$03$00@@@1@PAV?$Matrix@M$03$03$00@@@Z ; std::allocator_traits<std::allocator<Matrix<float,4,4,1> > >::construct<Matrix<float,4,4,1> >
PUBLIC	??$construct@V?$Matrix@M$03$01$00@@$$V@?$allocator_traits@V?$allocator@V?$Matrix@M$03$01$00@@@std@@@std@@SAXAAV?$allocator@V?$Matrix@M$03$01$00@@@1@PAV?$Matrix@M$03$01$00@@@Z ; std::allocator_traits<std::allocator<Matrix<float,4,2,1> > >::construct<Matrix<float,4,2,1> >
PUBLIC	??$construct@V?$Matrix@M$01$03$00@@$$V@?$allocator_traits@V?$allocator@V?$Matrix@M$01$03$00@@@std@@@std@@SAXAAV?$allocator@V?$Matrix@M$01$03$00@@@1@PAV?$Matrix@M$01$03$00@@@Z ; std::allocator_traits<std::allocator<Matrix<float,2,4,1> > >::construct<Matrix<float,2,4,1> >
PUBLIC	??$construct@V?$Matrix@M$03$02$00@@$$V@?$allocator_traits@V?$allocator@V?$Matrix@M$03$02$00@@@std@@@std@@SAXAAV?$allocator@V?$Matrix@M$03$02$00@@@1@PAV?$Matrix@M$03$02$00@@@Z ; std::allocator_traits<std::allocator<Matrix<float,4,3,1> > >::construct<Matrix<float,4,3,1> >
PUBLIC	??$construct@V?$Matrix@M$02$03$00@@$$V@?$allocator_traits@V?$allocator@V?$Matrix@M$02$03$00@@@std@@@std@@SAXAAV?$allocator@V?$Matrix@M$02$03$00@@@1@PAV?$Matrix@M$02$03$00@@@Z ; std::allocator_traits<std::allocator<Matrix<float,3,4,1> > >::construct<Matrix<float,3,4,1> >
PUBLIC	??$Assign@$03@?$AssignHelper@$03@?$Vector@M$03@@SAXAAV1@@Z ; Vector<float,4>::AssignHelper<4>::Assign<4>
PUBLIC	??$Assign@$07@?$AssignHelper@$07@?$Vector@M$07@@SAXAAV1@@Z ; Vector<float,8>::AssignHelper<8>::Assign<8>
PUBLIC	??$Assign@$01HHHHHH@?$AssignHelper@$07@?$Vector@M$07@@SAXAAV1@ABH11111@Z ; Vector<float,8>::AssignHelper<8>::Assign<2,int,int,int,int,int,int>
PUBLIC	??$construct@V?$Matrix@M$01$01$00@@$$V@?$_Wrap_alloc@V?$allocator@V?$Matrix@M$01$01$00@@@std@@@std@@QAEXPAV?$Matrix@M$01$01$00@@@Z ; std::_Wrap_alloc<std::allocator<Matrix<float,2,2,1> > >::construct<Matrix<float,2,2,1> >
PUBLIC	??$construct@V?$Matrix@M$02$02$00@@$$V@?$_Wrap_alloc@V?$allocator@V?$Matrix@M$02$02$00@@@std@@@std@@QAEXPAV?$Matrix@M$02$02$00@@@Z ; std::_Wrap_alloc<std::allocator<Matrix<float,3,3,1> > >::construct<Matrix<float,3,3,1> >
PUBLIC	??$construct@V?$Matrix@M$03$03$00@@$$V@?$_Wrap_alloc@V?$allocator@V?$Matrix@M$03$03$00@@@std@@@std@@QAEXPAV?$Matrix@M$03$03$00@@@Z ; std::_Wrap_alloc<std::allocator<Matrix<float,4,4,1> > >::construct<Matrix<float,4,4,1> >
PUBLIC	??$construct@V?$Matrix@M$03$01$00@@$$V@?$_Wrap_alloc@V?$allocator@V?$Matrix@M$03$01$00@@@std@@@std@@QAEXPAV?$Matrix@M$03$01$00@@@Z ; std::_Wrap_alloc<std::allocator<Matrix<float,4,2,1> > >::construct<Matrix<float,4,2,1> >
PUBLIC	??$construct@V?$Matrix@M$01$03$00@@$$V@?$_Wrap_alloc@V?$allocator@V?$Matrix@M$01$03$00@@@std@@@std@@QAEXPAV?$Matrix@M$01$03$00@@@Z ; std::_Wrap_alloc<std::allocator<Matrix<float,2,4,1> > >::construct<Matrix<float,2,4,1> >
PUBLIC	??$construct@V?$Matrix@M$03$02$00@@$$V@?$_Wrap_alloc@V?$allocator@V?$Matrix@M$03$02$00@@@std@@@std@@QAEXPAV?$Matrix@M$03$02$00@@@Z ; std::_Wrap_alloc<std::allocator<Matrix<float,4,3,1> > >::construct<Matrix<float,4,3,1> >
PUBLIC	??$construct@V?$Matrix@M$02$03$00@@$$V@?$_Wrap_alloc@V?$allocator@V?$Matrix@M$02$03$00@@@std@@@std@@QAEXPAV?$Matrix@M$02$03$00@@@Z ; std::_Wrap_alloc<std::allocator<Matrix<float,3,4,1> > >::construct<Matrix<float,3,4,1> >
PUBLIC	??$Assign@$00V?$Vector@M$02@@$$V@?$AssignHelper@$03@?$Vector@M$03@@SAXAAV1@ABV?$Vector@M$02@@@Z ; Vector<float,4>::AssignHelper<4>::Assign<1,Vector<float,3> >
PUBLIC	??$Assign@$02M$$V@?$AssignHelper@$03@?$Vector@M$03@@SAXAAV1@ABM@Z ; Vector<float,4>::AssignHelper<4>::Assign<3,float>
PUBLIC	??$Assign@$03V?$Vector@M$03@@$$V@?$AssignHelper@$07@?$Vector@M$07@@SAXAAV1@ABV?$Vector@M$03@@@Z ; Vector<float,8>::AssignHelper<8>::Assign<4,Vector<float,4> >
PUBLIC	??$Assign@$00HHHHHHH@?$AssignHelper@$07@?$Vector@M$07@@SAXAAV1@ABH111111@Z ; Vector<float,8>::AssignHelper<8>::Assign<1,int,int,int,int,int,int,int>
PUBLIC	??$_Unfancy@V?$Matrix@M$01$01$00@@@std@@YAPAV?$Matrix@M$01$01$00@@PAV1@@Z ; std::_Unfancy<Matrix<float,2,2,1> >
PUBLIC	??$_Unfancy@V?$Matrix@M$02$02$00@@@std@@YAPAV?$Matrix@M$02$02$00@@PAV1@@Z ; std::_Unfancy<Matrix<float,3,3,1> >
PUBLIC	??$_Unfancy@V?$Matrix@M$03$03$00@@@std@@YAPAV?$Matrix@M$03$03$00@@PAV1@@Z ; std::_Unfancy<Matrix<float,4,4,1> >
PUBLIC	??$_Unfancy@V?$Matrix@M$03$01$00@@@std@@YAPAV?$Matrix@M$03$01$00@@PAV1@@Z ; std::_Unfancy<Matrix<float,4,2,1> >
PUBLIC	??$_Unfancy@V?$Matrix@M$01$03$00@@@std@@YAPAV?$Matrix@M$01$03$00@@PAV1@@Z ; std::_Unfancy<Matrix<float,2,4,1> >
PUBLIC	??$_Unfancy@V?$Matrix@M$03$02$00@@@std@@YAPAV?$Matrix@M$03$02$00@@PAV1@@Z ; std::_Unfancy<Matrix<float,4,3,1> >
PUBLIC	??$_Unfancy@V?$Matrix@M$02$03$00@@@std@@YAPAV?$Matrix@M$02$03$00@@PAV1@@Z ; std::_Unfancy<Matrix<float,3,4,1> >
PUBLIC	?Get@?$GetVectorElement@H@?$Vector@M$07@@SAHABHH@Z ; Vector<float,8>::GetVectorElement<int>::Get
PUBLIC	?Get@?$GetVectorElement@V?$Vector@M$03@@@?$Vector@M$07@@SAMABV?$Vector@M$03@@H@Z ; Vector<float,8>::GetVectorElement<Vector<float,4> >::Get
PUBLIC	?Get@?$GetVectorElement@V?$Vector@M$02@@@?$Vector@M$03@@SAMABV?$Vector@M$02@@H@Z ; Vector<float,4>::GetVectorElement<Vector<float,3> >::Get
PUBLIC	?Get@?$GetVectorElement@M@?$Vector@M$03@@SAMABMH@Z ; Vector<float,4>::GetVectorElement<float>::Get
PUBLIC	??$_Destroy_range1@V?$allocator@V?$Matrix@M$01$01$00@@@std@@PAV?$Matrix@M$01$01$00@@@std@@YAXPAV?$Matrix@M$01$01$00@@0AAU?$_Wrap_alloc@V?$allocator@V?$Matrix@M$01$01$00@@@std@@@0@U?$integral_constant@_N$00@0@@Z ; std::_Destroy_range1<std::allocator<Matrix<float,2,2,1> >,Matrix<float,2,2,1> *>
PUBLIC	??$_Destroy_range1@V?$allocator@V?$Matrix@M$02$02$00@@@std@@PAV?$Matrix@M$02$02$00@@@std@@YAXPAV?$Matrix@M$02$02$00@@0AAU?$_Wrap_alloc@V?$allocator@V?$Matrix@M$02$02$00@@@std@@@0@U?$integral_constant@_N$00@0@@Z ; std::_Destroy_range1<std::allocator<Matrix<float,3,3,1> >,Matrix<float,3,3,1> *>
PUBLIC	??$_Destroy_range1@V?$allocator@V?$Matrix@M$03$03$00@@@std@@PAV?$Matrix@M$03$03$00@@@std@@YAXPAV?$Matrix@M$03$03$00@@0AAU?$_Wrap_alloc@V?$allocator@V?$Matrix@M$03$03$00@@@std@@@0@U?$integral_constant@_N$00@0@@Z ; std::_Destroy_range1<std::allocator<Matrix<float,4,4,1> >,Matrix<float,4,4,1> *>
PUBLIC	??$_Destroy_range1@V?$allocator@V?$Matrix@M$03$01$00@@@std@@PAV?$Matrix@M$03$01$00@@@std@@YAXPAV?$Matrix@M$03$01$00@@0AAU?$_Wrap_alloc@V?$allocator@V?$Matrix@M$03$01$00@@@std@@@0@U?$integral_constant@_N$00@0@@Z ; std::_Destroy_range1<std::allocator<Matrix<float,4,2,1> >,Matrix<float,4,2,1> *>
PUBLIC	??$_Destroy_range1@V?$allocator@V?$Matrix@M$01$03$00@@@std@@PAV?$Matrix@M$01$03$00@@@std@@YAXPAV?$Matrix@M$01$03$00@@0AAU?$_Wrap_alloc@V?$allocator@V?$Matrix@M$01$03$00@@@std@@@0@U?$integral_constant@_N$00@0@@Z ; std::_Destroy_range1<std::allocator<Matrix<float,2,4,1> >,Matrix<float,2,4,1> *>
PUBLIC	??$_Destroy_range1@V?$allocator@V?$Matrix@M$03$02$00@@@std@@PAV?$Matrix@M$03$02$00@@@std@@YAXPAV?$Matrix@M$03$02$00@@0AAU?$_Wrap_alloc@V?$allocator@V?$Matrix@M$03$02$00@@@std@@@0@U?$integral_constant@_N$00@0@@Z ; std::_Destroy_range1<std::allocator<Matrix<float,4,3,1> >,Matrix<float,4,3,1> *>
PUBLIC	??$_Destroy_range1@V?$allocator@V?$Matrix@M$02$03$00@@@std@@PAV?$Matrix@M$02$03$00@@@std@@YAXPAV?$Matrix@M$02$03$00@@0AAU?$_Wrap_alloc@V?$allocator@V?$Matrix@M$02$03$00@@@std@@@0@U?$integral_constant@_N$00@0@@Z ; std::_Destroy_range1<std::allocator<Matrix<float,3,4,1> >,Matrix<float,3,4,1> *>
PUBLIC	??$_Uninitialized_default_fill_n1@PAV?$Matrix@M$01$01$00@@IV?$allocator@V?$Matrix@M$01$01$00@@@std@@@std@@YAXPAV?$Matrix@M$01$01$00@@IAAU?$_Wrap_alloc@V?$allocator@V?$Matrix@M$01$01$00@@@std@@@0@U?$integral_constant@_N$0A@@0@@Z ; std::_Uninitialized_default_fill_n1<Matrix<float,2,2,1> *,unsigned int,std::allocator<Matrix<float,2,2,1> > >
PUBLIC	??$_Uninitialized_default_fill_n1@PAV?$Matrix@M$02$02$00@@IV?$allocator@V?$Matrix@M$02$02$00@@@std@@@std@@YAXPAV?$Matrix@M$02$02$00@@IAAU?$_Wrap_alloc@V?$allocator@V?$Matrix@M$02$02$00@@@std@@@0@U?$integral_constant@_N$0A@@0@@Z ; std::_Uninitialized_default_fill_n1<Matrix<float,3,3,1> *,unsigned int,std::allocator<Matrix<float,3,3,1> > >
PUBLIC	??$_Uninitialized_default_fill_n1@PAV?$Matrix@M$03$03$00@@IV?$allocator@V?$Matrix@M$03$03$00@@@std@@@std@@YAXPAV?$Matrix@M$03$03$00@@IAAU?$_Wrap_alloc@V?$allocator@V?$Matrix@M$03$03$00@@@std@@@0@U?$integral_constant@_N$0A@@0@@Z ; std::_Uninitialized_default_fill_n1<Matrix<float,4,4,1> *,unsigned int,std::allocator<Matrix<float,4,4,1> > >
PUBLIC	??$_Uninitialized_default_fill_n1@PAV?$Matrix@M$03$01$00@@IV?$allocator@V?$Matrix@M$03$01$00@@@std@@@std@@YAXPAV?$Matrix@M$03$01$00@@IAAU?$_Wrap_alloc@V?$allocator@V?$Matrix@M$03$01$00@@@std@@@0@U?$integral_constant@_N$0A@@0@@Z ; std::_Uninitialized_default_fill_n1<Matrix<float,4,2,1> *,unsigned int,std::allocator<Matrix<float,4,2,1> > >
PUBLIC	??$_Uninitialized_default_fill_n1@PAV?$Matrix@M$01$03$00@@IV?$allocator@V?$Matrix@M$01$03$00@@@std@@@std@@YAXPAV?$Matrix@M$01$03$00@@IAAU?$_Wrap_alloc@V?$allocator@V?$Matrix@M$01$03$00@@@std@@@0@U?$integral_constant@_N$0A@@0@@Z ; std::_Uninitialized_default_fill_n1<Matrix<float,2,4,1> *,unsigned int,std::allocator<Matrix<float,2,4,1> > >
PUBLIC	??$_Uninitialized_default_fill_n1@PAV?$Matrix@M$03$02$00@@IV?$allocator@V?$Matrix@M$03$02$00@@@std@@@std@@YAXPAV?$Matrix@M$03$02$00@@IAAU?$_Wrap_alloc@V?$allocator@V?$Matrix@M$03$02$00@@@std@@@0@U?$integral_constant@_N$0A@@0@@Z ; std::_Uninitialized_default_fill_n1<Matrix<float,4,3,1> *,unsigned int,std::allocator<Matrix<float,4,3,1> > >
PUBLIC	??$_Uninitialized_default_fill_n1@PAV?$Matrix@M$02$03$00@@IV?$allocator@V?$Matrix@M$02$03$00@@@std@@@std@@YAXPAV?$Matrix@M$02$03$00@@IAAU?$_Wrap_alloc@V?$allocator@V?$Matrix@M$02$03$00@@@std@@@0@U?$integral_constant@_N$0A@@0@@Z ; std::_Uninitialized_default_fill_n1<Matrix<float,3,4,1> *,unsigned int,std::allocator<Matrix<float,3,4,1> > >
PUBLIC	??$?G_JU?$ratio@$00$0DLJKMKAA@@std@@_JU01@@chrono@std@@YA?AV?$duration@_JU?$ratio@$00$0DLJKMKAA@@std@@@01@ABV201@0@Z ; std::chrono::operator-<__int64,std::ratio<1,1000000000>,__int64,std::ratio<1,1000000000> >
PUBLIC	??$Assign@$0A@MV?$Vector@M$02@@@?$AssignHelper@$03@?$Vector@M$03@@SAXAAV1@ABMABV?$Vector@M$02@@@Z ; Vector<float,4>::AssignHelper<4>::Assign<0,float,Vector<float,3> >
PUBLIC	??$Assign@$0A@V?$Vector@M$02@@M@?$AssignHelper@$03@?$Vector@M$03@@SAXAAV1@ABV?$Vector@M$02@@ABM@Z ; Vector<float,4>::AssignHelper<4>::Assign<0,Vector<float,3>,float>
PUBLIC	??$Assign@$0A@V?$Vector@M$03@@V1@@?$AssignHelper@$07@?$Vector@M$07@@SAXAAV1@ABV?$Vector@M$03@@1@Z ; Vector<float,8>::AssignHelper<8>::Assign<0,Vector<float,4>,Vector<float,4> >
PUBLIC	??$Assign@$0A@HHHHHHHH@?$AssignHelper@$07@?$Vector@M$07@@SAXAAV1@ABH1111111@Z ; Vector<float,8>::AssignHelper<8>::Assign<0,int,int,int,int,int,int,int,int>
PUBLIC	??0?$allocator@V?$Matrix@M$01$01$00@@@std@@QAE@XZ ; std::allocator<Matrix<float,2,2,1> >::allocator<Matrix<float,2,2,1> >
PUBLIC	??0?$allocator@V?$Matrix@M$02$02$00@@@std@@QAE@XZ ; std::allocator<Matrix<float,3,3,1> >::allocator<Matrix<float,3,3,1> >
PUBLIC	??0?$allocator@V?$Matrix@M$03$03$00@@@std@@QAE@XZ ; std::allocator<Matrix<float,4,4,1> >::allocator<Matrix<float,4,4,1> >
PUBLIC	??0?$allocator@V?$Matrix@M$03$01$00@@@std@@QAE@XZ ; std::allocator<Matrix<float,4,2,1> >::allocator<Matrix<float,4,2,1> >
PUBLIC	??0?$allocator@V?$Matrix@M$01$03$00@@@std@@QAE@XZ ; std::allocator<Matrix<float,2,4,1> >::allocator<Matrix<float,2,4,1> >
PUBLIC	?GetElement@?$MatrixData@M$03$02$00@@QBEMHH@Z	; MatrixData<float,4,3,1>::GetElement
PUBLIC	?GetElement@?$MatrixData@M$02$03$00@@QBEMHH@Z	; MatrixData<float,3,4,1>::GetElement
PUBLIC	??0?$allocator@V?$Matrix@M$03$02$00@@@std@@QAE@XZ ; std::allocator<Matrix<float,4,3,1> >::allocator<Matrix<float,4,3,1> >
PUBLIC	??0?$allocator@V?$Matrix@M$02$03$00@@@std@@QAE@XZ ; std::allocator<Matrix<float,3,4,1> >::allocator<Matrix<float,3,4,1> >
PUBLIC	?time_since_epoch@?$time_point@Usteady_clock@chrono@std@@V?$duration@_JU?$ratio@$00$0DLJKMKAA@@std@@@23@@chrono@std@@QBE?AV?$duration@_JU?$ratio@$00$0DLJKMKAA@@std@@@23@XZ ; std::chrono::time_point<std::chrono::steady_clock,std::chrono::duration<__int64,std::ratio<1,1000000000> > >::time_since_epoch
PUBLIC	??Y?$Vector@M$03@@QAEAAV0@ABV0@@Z		; Vector<float,4>::operator+=
PUBLIC	??0?$_Wrap_alloc@V?$allocator@V?$Matrix@M$01$01$00@@@std@@@std@@QAE@XZ ; std::_Wrap_alloc<std::allocator<Matrix<float,2,2,1> > >::_Wrap_alloc<std::allocator<Matrix<float,2,2,1> > >
PUBLIC	??0?$_Vector_val@U?$_Simple_types@V?$Matrix@M$01$01$00@@@std@@@std@@QAE@XZ ; std::_Vector_val<std::_Simple_types<Matrix<float,2,2,1> > >::_Vector_val<std::_Simple_types<Matrix<float,2,2,1> > >
PUBLIC	??0?$_Wrap_alloc@V?$allocator@V?$Matrix@M$02$02$00@@@std@@@std@@QAE@XZ ; std::_Wrap_alloc<std::allocator<Matrix<float,3,3,1> > >::_Wrap_alloc<std::allocator<Matrix<float,3,3,1> > >
PUBLIC	??0?$_Vector_val@U?$_Simple_types@V?$Matrix@M$02$02$00@@@std@@@std@@QAE@XZ ; std::_Vector_val<std::_Simple_types<Matrix<float,3,3,1> > >::_Vector_val<std::_Simple_types<Matrix<float,3,3,1> > >
PUBLIC	??0?$_Wrap_alloc@V?$allocator@V?$Matrix@M$03$03$00@@@std@@@std@@QAE@XZ ; std::_Wrap_alloc<std::allocator<Matrix<float,4,4,1> > >::_Wrap_alloc<std::allocator<Matrix<float,4,4,1> > >
PUBLIC	??0?$_Vector_val@U?$_Simple_types@V?$Matrix@M$03$03$00@@@std@@@std@@QAE@XZ ; std::_Vector_val<std::_Simple_types<Matrix<float,4,4,1> > >::_Vector_val<std::_Simple_types<Matrix<float,4,4,1> > >
PUBLIC	??0?$_Wrap_alloc@V?$allocator@V?$Matrix@M$03$01$00@@@std@@@std@@QAE@XZ ; std::_Wrap_alloc<std::allocator<Matrix<float,4,2,1> > >::_Wrap_alloc<std::allocator<Matrix<float,4,2,1> > >
PUBLIC	??0?$_Vector_val@U?$_Simple_types@V?$Matrix@M$03$01$00@@@std@@@std@@QAE@XZ ; std::_Vector_val<std::_Simple_types<Matrix<float,4,2,1> > >::_Vector_val<std::_Simple_types<Matrix<float,4,2,1> > >
PUBLIC	??0?$_Wrap_alloc@V?$allocator@V?$Matrix@M$01$03$00@@@std@@@std@@QAE@XZ ; std::_Wrap_alloc<std::allocator<Matrix<float,2,4,1> > >::_Wrap_alloc<std::allocator<Matrix<float,2,4,1> > >
PUBLIC	??0?$_Vector_val@U?$_Simple_types@V?$Matrix@M$01$03$00@@@std@@@std@@QAE@XZ ; std::_Vector_val<std::_Simple_types<Matrix<float,2,4,1> > >::_Vector_val<std::_Simple_types<Matrix<float,2,4,1> > >
PUBLIC	??R?$Matrix@M$03$02$00@@QBEMHH@Z		; Matrix<float,4,3,1>::operator()
PUBLIC	??R?$Matrix@M$02$03$00@@QBEMHH@Z		; Matrix<float,3,4,1>::operator()
PUBLIC	??0?$_Wrap_alloc@V?$allocator@V?$Matrix@M$03$02$00@@@std@@@std@@QAE@XZ ; std::_Wrap_alloc<std::allocator<Matrix<float,4,3,1> > >::_Wrap_alloc<std::allocator<Matrix<float,4,3,1> > >
PUBLIC	??0?$_Vector_val@U?$_Simple_types@V?$Matrix@M$03$02$00@@@std@@@std@@QAE@XZ ; std::_Vector_val<std::_Simple_types<Matrix<float,4,3,1> > >::_Vector_val<std::_Simple_types<Matrix<float,4,3,1> > >
PUBLIC	??0?$_Wrap_alloc@V?$allocator@V?$Matrix@M$02$03$00@@@std@@@std@@QAE@XZ ; std::_Wrap_alloc<std::allocator<Matrix<float,3,4,1> > >::_Wrap_alloc<std::allocator<Matrix<float,3,4,1> > >
PUBLIC	??0?$_Vector_val@U?$_Simple_types@V?$Matrix@M$02$03$00@@@std@@@std@@QAE@XZ ; std::_Vector_val<std::_Simple_types<Matrix<float,3,4,1> > >::_Vector_val<std::_Simple_types<Matrix<float,3,4,1> > >
PUBLIC	??$_Destroy_range@V?$allocator@V?$Matrix@M$01$01$00@@@std@@PAV?$Matrix@M$01$01$00@@@std@@YAXPAV?$Matrix@M$01$01$00@@0AAU?$_Wrap_alloc@V?$allocator@V?$Matrix@M$01$01$00@@@std@@@0@@Z ; std::_Destroy_range<std::allocator<Matrix<float,2,2,1> >,Matrix<float,2,2,1> *>
PUBLIC	??$_Destroy_range@V?$allocator@V?$Matrix@M$02$02$00@@@std@@PAV?$Matrix@M$02$02$00@@@std@@YAXPAV?$Matrix@M$02$02$00@@0AAU?$_Wrap_alloc@V?$allocator@V?$Matrix@M$02$02$00@@@std@@@0@@Z ; std::_Destroy_range<std::allocator<Matrix<float,3,3,1> >,Matrix<float,3,3,1> *>
PUBLIC	??$_Destroy_range@V?$allocator@V?$Matrix@M$03$03$00@@@std@@PAV?$Matrix@M$03$03$00@@@std@@YAXPAV?$Matrix@M$03$03$00@@0AAU?$_Wrap_alloc@V?$allocator@V?$Matrix@M$03$03$00@@@std@@@0@@Z ; std::_Destroy_range<std::allocator<Matrix<float,4,4,1> >,Matrix<float,4,4,1> *>
PUBLIC	??$_Destroy_range@V?$allocator@V?$Matrix@M$03$01$00@@@std@@PAV?$Matrix@M$03$01$00@@@std@@YAXPAV?$Matrix@M$03$01$00@@0AAU?$_Wrap_alloc@V?$allocator@V?$Matrix@M$03$01$00@@@std@@@0@@Z ; std::_Destroy_range<std::allocator<Matrix<float,4,2,1> >,Matrix<float,4,2,1> *>
PUBLIC	??$_Destroy_range@V?$allocator@V?$Matrix@M$01$03$00@@@std@@PAV?$Matrix@M$01$03$00@@@std@@YAXPAV?$Matrix@M$01$03$00@@0AAU?$_Wrap_alloc@V?$allocator@V?$Matrix@M$01$03$00@@@std@@@0@@Z ; std::_Destroy_range<std::allocator<Matrix<float,2,4,1> >,Matrix<float,2,4,1> *>
PUBLIC	??$_Destroy_range@V?$allocator@V?$Matrix@M$03$02$00@@@std@@PAV?$Matrix@M$03$02$00@@@std@@YAXPAV?$Matrix@M$03$02$00@@0AAU?$_Wrap_alloc@V?$allocator@V?$Matrix@M$03$02$00@@@std@@@0@@Z ; std::_Destroy_range<std::allocator<Matrix<float,4,3,1> >,Matrix<float,4,3,1> *>
PUBLIC	??$_Destroy_range@V?$allocator@V?$Matrix@M$02$03$00@@@std@@PAV?$Matrix@M$02$03$00@@@std@@YAXPAV?$Matrix@M$02$03$00@@0AAU?$_Wrap_alloc@V?$allocator@V?$Matrix@M$02$03$00@@@std@@@0@@Z ; std::_Destroy_range<std::allocator<Matrix<float,3,4,1> >,Matrix<float,3,4,1> *>
PUBLIC	??$?0$$V@?$_Compressed_pair@U?$_Wrap_alloc@V?$allocator@V?$Matrix@M$01$01$00@@@std@@@std@@V?$_Vector_val@U?$_Simple_types@V?$Matrix@M$01$01$00@@@std@@@2@$00@std@@QAE@U_Zero_then_variadic_args_t@1@@Z ; std::_Compressed_pair<std::_Wrap_alloc<std::allocator<Matrix<float,2,2,1> > >,std::_Vector_val<std::_Simple_types<Matrix<float,2,2,1> > >,1>::_Compressed_pair<std::_Wrap_alloc<std::allocator<Matrix<float,2,2,1> > >,std::_Vector_val<std::_Simple_types<Matrix<float,2,2,1> > >,1><>
PUBLIC	??$?0$$V@?$_Compressed_pair@U?$_Wrap_alloc@V?$allocator@V?$Matrix@M$02$02$00@@@std@@@std@@V?$_Vector_val@U?$_Simple_types@V?$Matrix@M$02$02$00@@@std@@@2@$00@std@@QAE@U_Zero_then_variadic_args_t@1@@Z ; std::_Compressed_pair<std::_Wrap_alloc<std::allocator<Matrix<float,3,3,1> > >,std::_Vector_val<std::_Simple_types<Matrix<float,3,3,1> > >,1>::_Compressed_pair<std::_Wrap_alloc<std::allocator<Matrix<float,3,3,1> > >,std::_Vector_val<std::_Simple_types<Matrix<float,3,3,1> > >,1><>
PUBLIC	??$?0$$V@?$_Compressed_pair@U?$_Wrap_alloc@V?$allocator@V?$Matrix@M$03$03$00@@@std@@@std@@V?$_Vector_val@U?$_Simple_types@V?$Matrix@M$03$03$00@@@std@@@2@$00@std@@QAE@U_Zero_then_variadic_args_t@1@@Z ; std::_Compressed_pair<std::_Wrap_alloc<std::allocator<Matrix<float,4,4,1> > >,std::_Vector_val<std::_Simple_types<Matrix<float,4,4,1> > >,1>::_Compressed_pair<std::_Wrap_alloc<std::allocator<Matrix<float,4,4,1> > >,std::_Vector_val<std::_Simple_types<Matrix<float,4,4,1> > >,1><>
PUBLIC	??$?0$$V@?$_Compressed_pair@U?$_Wrap_alloc@V?$allocator@V?$Matrix@M$03$01$00@@@std@@@std@@V?$_Vector_val@U?$_Simple_types@V?$Matrix@M$03$01$00@@@std@@@2@$00@std@@QAE@U_Zero_then_variadic_args_t@1@@Z ; std::_Compressed_pair<std::_Wrap_alloc<std::allocator<Matrix<float,4,2,1> > >,std::_Vector_val<std::_Simple_types<Matrix<float,4,2,1> > >,1>::_Compressed_pair<std::_Wrap_alloc<std::allocator<Matrix<float,4,2,1> > >,std::_Vector_val<std::_Simple_types<Matrix<float,4,2,1> > >,1><>
PUBLIC	??$?0$$V@?$_Compressed_pair@U?$_Wrap_alloc@V?$allocator@V?$Matrix@M$01$03$00@@@std@@@std@@V?$_Vector_val@U?$_Simple_types@V?$Matrix@M$01$03$00@@@std@@@2@$00@std@@QAE@U_Zero_then_variadic_args_t@1@@Z ; std::_Compressed_pair<std::_Wrap_alloc<std::allocator<Matrix<float,2,4,1> > >,std::_Vector_val<std::_Simple_types<Matrix<float,2,4,1> > >,1>::_Compressed_pair<std::_Wrap_alloc<std::allocator<Matrix<float,2,4,1> > >,std::_Vector_val<std::_Simple_types<Matrix<float,2,4,1> > >,1><>
PUBLIC	??$?0$$V@?$_Compressed_pair@U?$_Wrap_alloc@V?$allocator@V?$Matrix@M$03$02$00@@@std@@@std@@V?$_Vector_val@U?$_Simple_types@V?$Matrix@M$03$02$00@@@std@@@2@$00@std@@QAE@U_Zero_then_variadic_args_t@1@@Z ; std::_Compressed_pair<std::_Wrap_alloc<std::allocator<Matrix<float,4,3,1> > >,std::_Vector_val<std::_Simple_types<Matrix<float,4,3,1> > >,1>::_Compressed_pair<std::_Wrap_alloc<std::allocator<Matrix<float,4,3,1> > >,std::_Vector_val<std::_Simple_types<Matrix<float,4,3,1> > >,1><>
PUBLIC	??$?0$$V@?$_Compressed_pair@U?$_Wrap_alloc@V?$allocator@V?$Matrix@M$02$03$00@@@std@@@std@@V?$_Vector_val@U?$_Simple_types@V?$Matrix@M$02$03$00@@@std@@@2@$00@std@@QAE@U_Zero_then_variadic_args_t@1@@Z ; std::_Compressed_pair<std::_Wrap_alloc<std::allocator<Matrix<float,3,4,1> > >,std::_Vector_val<std::_Simple_types<Matrix<float,3,4,1> > >,1>::_Compressed_pair<std::_Wrap_alloc<std::allocator<Matrix<float,3,4,1> > >,std::_Vector_val<std::_Simple_types<Matrix<float,3,4,1> > >,1><>
PUBLIC	??$_Uninitialized_default_fill_n@PAV?$Matrix@M$01$01$00@@IV?$allocator@V?$Matrix@M$01$01$00@@@std@@@std@@YAXPAV?$Matrix@M$01$01$00@@IAAU?$_Wrap_alloc@V?$allocator@V?$Matrix@M$01$01$00@@@std@@@0@@Z ; std::_Uninitialized_default_fill_n<Matrix<float,2,2,1> *,unsigned int,std::allocator<Matrix<float,2,2,1> > >
PUBLIC	??$_Uninitialized_default_fill_n@PAV?$Matrix@M$02$02$00@@IV?$allocator@V?$Matrix@M$02$02$00@@@std@@@std@@YAXPAV?$Matrix@M$02$02$00@@IAAU?$_Wrap_alloc@V?$allocator@V?$Matrix@M$02$02$00@@@std@@@0@@Z ; std::_Uninitialized_default_fill_n<Matrix<float,3,3,1> *,unsigned int,std::allocator<Matrix<float,3,3,1> > >
PUBLIC	??$_Uninitialized_default_fill_n@PAV?$Matrix@M$03$03$00@@IV?$allocator@V?$Matrix@M$03$03$00@@@std@@@std@@YAXPAV?$Matrix@M$03$03$00@@IAAU?$_Wrap_alloc@V?$allocator@V?$Matrix@M$03$03$00@@@std@@@0@@Z ; std::_Uninitialized_default_fill_n<Matrix<float,4,4,1> *,unsigned int,std::allocator<Matrix<float,4,4,1> > >
PUBLIC	??$_Uninitialized_default_fill_n@PAV?$Matrix@M$03$01$00@@IV?$allocator@V?$Matrix@M$03$01$00@@@std@@@std@@YAXPAV?$Matrix@M$03$01$00@@IAAU?$_Wrap_alloc@V?$allocator@V?$Matrix@M$03$01$00@@@std@@@0@@Z ; std::_Uninitialized_default_fill_n<Matrix<float,4,2,1> *,unsigned int,std::allocator<Matrix<float,4,2,1> > >
PUBLIC	??$_Uninitialized_default_fill_n@PAV?$Matrix@M$01$03$00@@IV?$allocator@V?$Matrix@M$01$03$00@@@std@@@std@@YAXPAV?$Matrix@M$01$03$00@@IAAU?$_Wrap_alloc@V?$allocator@V?$Matrix@M$01$03$00@@@std@@@0@@Z ; std::_Uninitialized_default_fill_n<Matrix<float,2,4,1> *,unsigned int,std::allocator<Matrix<float,2,4,1> > >
PUBLIC	??$_Uninitialized_default_fill_n@PAV?$Matrix@M$03$02$00@@IV?$allocator@V?$Matrix@M$03$02$00@@@std@@@std@@YAXPAV?$Matrix@M$03$02$00@@IAAU?$_Wrap_alloc@V?$allocator@V?$Matrix@M$03$02$00@@@std@@@0@@Z ; std::_Uninitialized_default_fill_n<Matrix<float,4,3,1> *,unsigned int,std::allocator<Matrix<float,4,3,1> > >
PUBLIC	??$_Uninitialized_default_fill_n@PAV?$Matrix@M$02$03$00@@IV?$allocator@V?$Matrix@M$02$03$00@@@std@@@std@@YAXPAV?$Matrix@M$02$03$00@@IAAU?$_Wrap_alloc@V?$allocator@V?$Matrix@M$02$03$00@@@std@@@0@@Z ; std::_Uninitialized_default_fill_n<Matrix<float,3,4,1> *,unsigned int,std::allocator<Matrix<float,3,4,1> > >
PUBLIC	??$?DMM$02$03$03$00$00MX@@YA?AV?$Matrix@M$03$03$00@@ABV?$Matrix@M$02$03$00@@ABV?$Matrix@M$03$02$00@@@Z ; operator*<float,float,3,4,4,1,1,float,void>
PUBLIC	??$?DMM$03$02$02$00$00MX@@YA?AV?$Matrix@M$02$02$00@@ABV?$Matrix@M$03$02$00@@ABV?$Matrix@M$02$03$00@@@Z ; operator*<float,float,4,3,3,1,1,float,void>
PUBLIC	??$duration_cast@V?$duration@_JU?$ratio@$00$0DLJKMKAA@@std@@@chrono@std@@_JU?$ratio@$00$0DLJKMKAA@@3@@chrono@std@@YA?AV?$duration@_JU?$ratio@$00$0DLJKMKAA@@std@@@01@ABV201@@Z ; std::chrono::duration_cast<std::chrono::duration<__int64,std::ratio<1,1000000000> >,__int64,std::ratio<1,1000000000> >
PUBLIC	??$?GUsteady_clock@chrono@std@@V?$duration@_JU?$ratio@$00$0DLJKMKAA@@std@@@12@V312@@chrono@std@@YA?AV?$duration@_JU?$ratio@$00$0DLJKMKAA@@std@@@01@ABV?$time_point@Usteady_clock@chrono@std@@V?$duration@_JU?$ratio@$00$0DLJKMKAA@@std@@@23@@01@0@Z ; std::chrono::operator-<std::chrono::steady_clock,std::chrono::duration<__int64,std::ratio<1,1000000000> >,std::chrono::duration<__int64,std::ratio<1,1000000000> > >
PUBLIC	??$?DMM$01$01$01$00$00MX@@YA?AV?$Matrix@M$01$01$00@@ABV0@0@Z ; operator*<float,float,2,2,2,1,1,float,void>
PUBLIC	??$?HM$03@@YA?AV?$Vector@M$03@@ABV0@0@Z		; operator+<float,4>
PUBLIC	??$Assign@MV?$Vector@M$02@@$0A@@?$Vector@M$03@@IAEXABMABV?$Vector@M$02@@@Z ; Vector<float,4>::Assign<float,Vector<float,3>,0>
PUBLIC	??$Assign@V?$Vector@M$02@@M$0A@@?$Vector@M$03@@IAEXABV?$Vector@M$02@@ABM@Z ; Vector<float,4>::Assign<Vector<float,3>,float,0>
PUBLIC	??$Assign@V?$Vector@M$03@@V1@$0A@@?$Vector@M$07@@IAEXABV?$Vector@M$03@@0@Z ; Vector<float,8>::Assign<Vector<float,4>,Vector<float,4>,0>
PUBLIC	??$Assign@HHHHHHHH$0A@@?$Vector@M$07@@IAEXABH0000000@Z ; Vector<float,8>::Assign<int,int,int,int,int,int,int,int,0>
PUBLIC	?max_size@?$allocator@V?$Matrix@M$01$01$00@@@std@@QBEIXZ ; std::allocator<Matrix<float,2,2,1> >::max_size
PUBLIC	?max_size@?$allocator@V?$Matrix@M$02$02$00@@@std@@QBEIXZ ; std::allocator<Matrix<float,3,3,1> >::max_size
PUBLIC	?max_size@?$allocator@V?$Matrix@M$03$03$00@@@std@@QBEIXZ ; std::allocator<Matrix<float,4,4,1> >::max_size
PUBLIC	?max_size@?$allocator@V?$Matrix@M$03$01$00@@@std@@QBEIXZ ; std::allocator<Matrix<float,4,2,1> >::max_size
PUBLIC	?max_size@?$allocator@V?$Matrix@M$01$03$00@@@std@@QBEIXZ ; std::allocator<Matrix<float,2,4,1> >::max_size
PUBLIC	?max_size@?$allocator@V?$Matrix@M$03$02$00@@@std@@QBEIXZ ; std::allocator<Matrix<float,4,3,1> >::max_size
PUBLIC	?max_size@?$allocator@V?$Matrix@M$02$03$00@@@std@@QBEIXZ ; std::allocator<Matrix<float,3,4,1> >::max_size
PUBLIC	?max_size@?$allocator_traits@V?$allocator@V?$Matrix@M$01$01$00@@@std@@@std@@SAIABV?$allocator@V?$Matrix@M$01$01$00@@@2@@Z ; std::allocator_traits<std::allocator<Matrix<float,2,2,1> > >::max_size
PUBLIC	?_Get_first@?$_Compressed_pair@U?$_Wrap_alloc@V?$allocator@V?$Matrix@M$01$01$00@@@std@@@std@@V?$_Vector_val@U?$_Simple_types@V?$Matrix@M$01$01$00@@@std@@@2@$00@std@@QBEABU?$_Wrap_alloc@V?$allocator@V?$Matrix@M$01$01$00@@@std@@@2@XZ ; std::_Compressed_pair<std::_Wrap_alloc<std::allocator<Matrix<float,2,2,1> > >,std::_Vector_val<std::_Simple_types<Matrix<float,2,2,1> > >,1>::_Get_first
PUBLIC	?max_size@?$allocator_traits@V?$allocator@V?$Matrix@M$02$02$00@@@std@@@std@@SAIABV?$allocator@V?$Matrix@M$02$02$00@@@2@@Z ; std::allocator_traits<std::allocator<Matrix<float,3,3,1> > >::max_size
PUBLIC	?_Get_first@?$_Compressed_pair@U?$_Wrap_alloc@V?$allocator@V?$Matrix@M$02$02$00@@@std@@@std@@V?$_Vector_val@U?$_Simple_types@V?$Matrix@M$02$02$00@@@std@@@2@$00@std@@QBEABU?$_Wrap_alloc@V?$allocator@V?$Matrix@M$02$02$00@@@std@@@2@XZ ; std::_Compressed_pair<std::_Wrap_alloc<std::allocator<Matrix<float,3,3,1> > >,std::_Vector_val<std::_Simple_types<Matrix<float,3,3,1> > >,1>::_Get_first
PUBLIC	?max_size@?$allocator_traits@V?$allocator@V?$Matrix@M$03$03$00@@@std@@@std@@SAIABV?$allocator@V?$Matrix@M$03$03$00@@@2@@Z ; std::allocator_traits<std::allocator<Matrix<float,4,4,1> > >::max_size
PUBLIC	?_Get_first@?$_Compressed_pair@U?$_Wrap_alloc@V?$allocator@V?$Matrix@M$03$03$00@@@std@@@std@@V?$_Vector_val@U?$_Simple_types@V?$Matrix@M$03$03$00@@@std@@@2@$00@std@@QBEABU?$_Wrap_alloc@V?$allocator@V?$Matrix@M$03$03$00@@@std@@@2@XZ ; std::_Compressed_pair<std::_Wrap_alloc<std::allocator<Matrix<float,4,4,1> > >,std::_Vector_val<std::_Simple_types<Matrix<float,4,4,1> > >,1>::_Get_first
PUBLIC	?max_size@?$allocator_traits@V?$allocator@V?$Matrix@M$03$01$00@@@std@@@std@@SAIABV?$allocator@V?$Matrix@M$03$01$00@@@2@@Z ; std::allocator_traits<std::allocator<Matrix<float,4,2,1> > >::max_size
PUBLIC	?_Get_first@?$_Compressed_pair@U?$_Wrap_alloc@V?$allocator@V?$Matrix@M$03$01$00@@@std@@@std@@V?$_Vector_val@U?$_Simple_types@V?$Matrix@M$03$01$00@@@std@@@2@$00@std@@QBEABU?$_Wrap_alloc@V?$allocator@V?$Matrix@M$03$01$00@@@std@@@2@XZ ; std::_Compressed_pair<std::_Wrap_alloc<std::allocator<Matrix<float,4,2,1> > >,std::_Vector_val<std::_Simple_types<Matrix<float,4,2,1> > >,1>::_Get_first
PUBLIC	?max_size@?$allocator_traits@V?$allocator@V?$Matrix@M$01$03$00@@@std@@@std@@SAIABV?$allocator@V?$Matrix@M$01$03$00@@@2@@Z ; std::allocator_traits<std::allocator<Matrix<float,2,4,1> > >::max_size
PUBLIC	?_Get_first@?$_Compressed_pair@U?$_Wrap_alloc@V?$allocator@V?$Matrix@M$01$03$00@@@std@@@std@@V?$_Vector_val@U?$_Simple_types@V?$Matrix@M$01$03$00@@@std@@@2@$00@std@@QBEABU?$_Wrap_alloc@V?$allocator@V?$Matrix@M$01$03$00@@@std@@@2@XZ ; std::_Compressed_pair<std::_Wrap_alloc<std::allocator<Matrix<float,2,4,1> > >,std::_Vector_val<std::_Simple_types<Matrix<float,2,4,1> > >,1>::_Get_first
PUBLIC	?max_size@?$allocator_traits@V?$allocator@V?$Matrix@M$03$02$00@@@std@@@std@@SAIABV?$allocator@V?$Matrix@M$03$02$00@@@2@@Z ; std::allocator_traits<std::allocator<Matrix<float,4,3,1> > >::max_size
PUBLIC	?_Get_first@?$_Compressed_pair@U?$_Wrap_alloc@V?$allocator@V?$Matrix@M$03$02$00@@@std@@@std@@V?$_Vector_val@U?$_Simple_types@V?$Matrix@M$03$02$00@@@std@@@2@$00@std@@QBEABU?$_Wrap_alloc@V?$allocator@V?$Matrix@M$03$02$00@@@std@@@2@XZ ; std::_Compressed_pair<std::_Wrap_alloc<std::allocator<Matrix<float,4,3,1> > >,std::_Vector_val<std::_Simple_types<Matrix<float,4,3,1> > >,1>::_Get_first
PUBLIC	?max_size@?$allocator_traits@V?$allocator@V?$Matrix@M$02$03$00@@@std@@@std@@SAIABV?$allocator@V?$Matrix@M$02$03$00@@@2@@Z ; std::allocator_traits<std::allocator<Matrix<float,3,4,1> > >::max_size
PUBLIC	?_Get_first@?$_Compressed_pair@U?$_Wrap_alloc@V?$allocator@V?$Matrix@M$02$03$00@@@std@@@std@@V?$_Vector_val@U?$_Simple_types@V?$Matrix@M$02$03$00@@@std@@@2@$00@std@@QBEABU?$_Wrap_alloc@V?$allocator@V?$Matrix@M$02$03$00@@@std@@@2@XZ ; std::_Compressed_pair<std::_Wrap_alloc<std::allocator<Matrix<float,3,4,1> > >,std::_Vector_val<std::_Simple_types<Matrix<float,3,4,1> > >,1>::_Get_first
PUBLIC	?deallocate@?$allocator@V?$Matrix@M$01$01$00@@@std@@QAEXPAV?$Matrix@M$01$01$00@@I@Z ; std::allocator<Matrix<float,2,2,1> >::deallocate
PUBLIC	?allocate@?$allocator@V?$Matrix@M$01$01$00@@@std@@QAEPAV?$Matrix@M$01$01$00@@I@Z ; std::allocator<Matrix<float,2,2,1> >::allocate
PUBLIC	?_Getal@?$_Vector_alloc@U?$_Vec_base_types@V?$Matrix@M$01$01$00@@V?$allocator@V?$Matrix@M$01$01$00@@@std@@@std@@@std@@QBEABU?$_Wrap_alloc@V?$allocator@V?$Matrix@M$01$01$00@@@std@@@2@XZ ; std::_Vector_alloc<std::_Vec_base_types<Matrix<float,2,2,1>,std::allocator<Matrix<float,2,2,1> > > >::_Getal
PUBLIC	?max_size@?$_Wrap_alloc@V?$allocator@V?$Matrix@M$01$01$00@@@std@@@std@@QBEIU_Nil@2@@Z ; std::_Wrap_alloc<std::allocator<Matrix<float,2,2,1> > >::max_size
PUBLIC	?_Get_second@?$_Compressed_pair@U?$_Wrap_alloc@V?$allocator@V?$Matrix@M$01$01$00@@@std@@@std@@V?$_Vector_val@U?$_Simple_types@V?$Matrix@M$01$01$00@@@std@@@2@$00@std@@QAEAAV?$_Vector_val@U?$_Simple_types@V?$Matrix@M$01$01$00@@@std@@@2@XZ ; std::_Compressed_pair<std::_Wrap_alloc<std::allocator<Matrix<float,2,2,1> > >,std::_Vector_val<std::_Simple_types<Matrix<float,2,2,1> > >,1>::_Get_second
PUBLIC	?_Reset@?$linear_congruential@I$0LMIP@$0A@$0HPPPPPPP@@std@@IAEXI@Z ; std::linear_congruential<unsigned int,48271,0,2147483647>::_Reset
PUBLIC	?_Init@param_type@?$uniform_real@M@std@@QAEXMM@Z ; std::uniform_real<float>::param_type::_Init
PUBLIC	?deallocate@?$allocator@V?$Matrix@M$02$02$00@@@std@@QAEXPAV?$Matrix@M$02$02$00@@I@Z ; std::allocator<Matrix<float,3,3,1> >::deallocate
PUBLIC	?allocate@?$allocator@V?$Matrix@M$02$02$00@@@std@@QAEPAV?$Matrix@M$02$02$00@@I@Z ; std::allocator<Matrix<float,3,3,1> >::allocate
PUBLIC	?_Getal@?$_Vector_alloc@U?$_Vec_base_types@V?$Matrix@M$02$02$00@@V?$allocator@V?$Matrix@M$02$02$00@@@std@@@std@@@std@@QBEABU?$_Wrap_alloc@V?$allocator@V?$Matrix@M$02$02$00@@@std@@@2@XZ ; std::_Vector_alloc<std::_Vec_base_types<Matrix<float,3,3,1>,std::allocator<Matrix<float,3,3,1> > > >::_Getal
PUBLIC	?max_size@?$_Wrap_alloc@V?$allocator@V?$Matrix@M$02$02$00@@@std@@@std@@QBEIU_Nil@2@@Z ; std::_Wrap_alloc<std::allocator<Matrix<float,3,3,1> > >::max_size
PUBLIC	?_Get_second@?$_Compressed_pair@U?$_Wrap_alloc@V?$allocator@V?$Matrix@M$02$02$00@@@std@@@std@@V?$_Vector_val@U?$_Simple_types@V?$Matrix@M$02$02$00@@@std@@@2@$00@std@@QAEAAV?$_Vector_val@U?$_Simple_types@V?$Matrix@M$02$02$00@@@std@@@2@XZ ; std::_Compressed_pair<std::_Wrap_alloc<std::allocator<Matrix<float,3,3,1> > >,std::_Vector_val<std::_Simple_types<Matrix<float,3,3,1> > >,1>::_Get_second
PUBLIC	?deallocate@?$allocator@V?$Matrix@M$03$03$00@@@std@@QAEXPAV?$Matrix@M$03$03$00@@I@Z ; std::allocator<Matrix<float,4,4,1> >::deallocate
PUBLIC	?allocate@?$allocator@V?$Matrix@M$03$03$00@@@std@@QAEPAV?$Matrix@M$03$03$00@@I@Z ; std::allocator<Matrix<float,4,4,1> >::allocate
PUBLIC	?_Getal@?$_Vector_alloc@U?$_Vec_base_types@V?$Matrix@M$03$03$00@@V?$allocator@V?$Matrix@M$03$03$00@@@std@@@std@@@std@@QBEABU?$_Wrap_alloc@V?$allocator@V?$Matrix@M$03$03$00@@@std@@@2@XZ ; std::_Vector_alloc<std::_Vec_base_types<Matrix<float,4,4,1>,std::allocator<Matrix<float,4,4,1> > > >::_Getal
PUBLIC	?max_size@?$_Wrap_alloc@V?$allocator@V?$Matrix@M$03$03$00@@@std@@@std@@QBEIU_Nil@2@@Z ; std::_Wrap_alloc<std::allocator<Matrix<float,4,4,1> > >::max_size
PUBLIC	?_Get_second@?$_Compressed_pair@U?$_Wrap_alloc@V?$allocator@V?$Matrix@M$03$03$00@@@std@@@std@@V?$_Vector_val@U?$_Simple_types@V?$Matrix@M$03$03$00@@@std@@@2@$00@std@@QAEAAV?$_Vector_val@U?$_Simple_types@V?$Matrix@M$03$03$00@@@std@@@2@XZ ; std::_Compressed_pair<std::_Wrap_alloc<std::allocator<Matrix<float,4,4,1> > >,std::_Vector_val<std::_Simple_types<Matrix<float,4,4,1> > >,1>::_Get_second
PUBLIC	?deallocate@?$allocator@V?$Matrix@M$03$01$00@@@std@@QAEXPAV?$Matrix@M$03$01$00@@I@Z ; std::allocator<Matrix<float,4,2,1> >::deallocate
PUBLIC	?allocate@?$allocator@V?$Matrix@M$03$01$00@@@std@@QAEPAV?$Matrix@M$03$01$00@@I@Z ; std::allocator<Matrix<float,4,2,1> >::allocate
PUBLIC	?_Getal@?$_Vector_alloc@U?$_Vec_base_types@V?$Matrix@M$03$01$00@@V?$allocator@V?$Matrix@M$03$01$00@@@std@@@std@@@std@@QBEABU?$_Wrap_alloc@V?$allocator@V?$Matrix@M$03$01$00@@@std@@@2@XZ ; std::_Vector_alloc<std::_Vec_base_types<Matrix<float,4,2,1>,std::allocator<Matrix<float,4,2,1> > > >::_Getal
PUBLIC	?max_size@?$_Wrap_alloc@V?$allocator@V?$Matrix@M$03$01$00@@@std@@@std@@QBEIU_Nil@2@@Z ; std::_Wrap_alloc<std::allocator<Matrix<float,4,2,1> > >::max_size
PUBLIC	?_Get_second@?$_Compressed_pair@U?$_Wrap_alloc@V?$allocator@V?$Matrix@M$03$01$00@@@std@@@std@@V?$_Vector_val@U?$_Simple_types@V?$Matrix@M$03$01$00@@@std@@@2@$00@std@@QAEAAV?$_Vector_val@U?$_Simple_types@V?$Matrix@M$03$01$00@@@std@@@2@XZ ; std::_Compressed_pair<std::_Wrap_alloc<std::allocator<Matrix<float,4,2,1> > >,std::_Vector_val<std::_Simple_types<Matrix<float,4,2,1> > >,1>::_Get_second
PUBLIC	?deallocate@?$allocator@V?$Matrix@M$01$03$00@@@std@@QAEXPAV?$Matrix@M$01$03$00@@I@Z ; std::allocator<Matrix<float,2,4,1> >::deallocate
PUBLIC	?allocate@?$allocator@V?$Matrix@M$01$03$00@@@std@@QAEPAV?$Matrix@M$01$03$00@@I@Z ; std::allocator<Matrix<float,2,4,1> >::allocate
PUBLIC	?_Getal@?$_Vector_alloc@U?$_Vec_base_types@V?$Matrix@M$01$03$00@@V?$allocator@V?$Matrix@M$01$03$00@@@std@@@std@@@std@@QBEABU?$_Wrap_alloc@V?$allocator@V?$Matrix@M$01$03$00@@@std@@@2@XZ ; std::_Vector_alloc<std::_Vec_base_types<Matrix<float,2,4,1>,std::allocator<Matrix<float,2,4,1> > > >::_Getal
PUBLIC	?max_size@?$_Wrap_alloc@V?$allocator@V?$Matrix@M$01$03$00@@@std@@@std@@QBEIU_Nil@2@@Z ; std::_Wrap_alloc<std::allocator<Matrix<float,2,4,1> > >::max_size
PUBLIC	?_Get_second@?$_Compressed_pair@U?$_Wrap_alloc@V?$allocator@V?$Matrix@M$01$03$00@@@std@@@std@@V?$_Vector_val@U?$_Simple_types@V?$Matrix@M$01$03$00@@@std@@@2@$00@std@@QAEAAV?$_Vector_val@U?$_Simple_types@V?$Matrix@M$01$03$00@@@std@@@2@XZ ; std::_Compressed_pair<std::_Wrap_alloc<std::allocator<Matrix<float,2,4,1> > >,std::_Vector_val<std::_Simple_types<Matrix<float,2,4,1> > >,1>::_Get_second
PUBLIC	?deallocate@?$allocator@V?$Matrix@M$03$02$00@@@std@@QAEXPAV?$Matrix@M$03$02$00@@I@Z ; std::allocator<Matrix<float,4,3,1> >::deallocate
PUBLIC	?allocate@?$allocator@V?$Matrix@M$03$02$00@@@std@@QAEPAV?$Matrix@M$03$02$00@@I@Z ; std::allocator<Matrix<float,4,3,1> >::allocate
PUBLIC	?_Getal@?$_Vector_alloc@U?$_Vec_base_types@V?$Matrix@M$03$02$00@@V?$allocator@V?$Matrix@M$03$02$00@@@std@@@std@@@std@@QBEABU?$_Wrap_alloc@V?$allocator@V?$Matrix@M$03$02$00@@@std@@@2@XZ ; std::_Vector_alloc<std::_Vec_base_types<Matrix<float,4,3,1>,std::allocator<Matrix<float,4,3,1> > > >::_Getal
PUBLIC	?max_size@?$_Wrap_alloc@V?$allocator@V?$Matrix@M$03$02$00@@@std@@@std@@QBEIU_Nil@2@@Z ; std::_Wrap_alloc<std::allocator<Matrix<float,4,3,1> > >::max_size
PUBLIC	?_Get_second@?$_Compressed_pair@U?$_Wrap_alloc@V?$allocator@V?$Matrix@M$03$02$00@@@std@@@std@@V?$_Vector_val@U?$_Simple_types@V?$Matrix@M$03$02$00@@@std@@@2@$00@std@@QAEAAV?$_Vector_val@U?$_Simple_types@V?$Matrix@M$03$02$00@@@std@@@2@XZ ; std::_Compressed_pair<std::_Wrap_alloc<std::allocator<Matrix<float,4,3,1> > >,std::_Vector_val<std::_Simple_types<Matrix<float,4,3,1> > >,1>::_Get_second
PUBLIC	?deallocate@?$allocator@V?$Matrix@M$02$03$00@@@std@@QAEXPAV?$Matrix@M$02$03$00@@I@Z ; std::allocator<Matrix<float,3,4,1> >::deallocate
PUBLIC	?allocate@?$allocator@V?$Matrix@M$02$03$00@@@std@@QAEPAV?$Matrix@M$02$03$00@@I@Z ; std::allocator<Matrix<float,3,4,1> >::allocate
PUBLIC	?_Getal@?$_Vector_alloc@U?$_Vec_base_types@V?$Matrix@M$02$03$00@@V?$allocator@V?$Matrix@M$02$03$00@@@std@@@std@@@std@@QBEABU?$_Wrap_alloc@V?$allocator@V?$Matrix@M$02$03$00@@@std@@@2@XZ ; std::_Vector_alloc<std::_Vec_base_types<Matrix<float,3,4,1>,std::allocator<Matrix<float,3,4,1> > > >::_Getal
PUBLIC	?max_size@?$_Wrap_alloc@V?$allocator@V?$Matrix@M$02$03$00@@@std@@@std@@QBEIU_Nil@2@@Z ; std::_Wrap_alloc<std::allocator<Matrix<float,3,4,1> > >::max_size
PUBLIC	?_Get_second@?$_Compressed_pair@U?$_Wrap_alloc@V?$allocator@V?$Matrix@M$02$03$00@@@std@@@std@@V?$_Vector_val@U?$_Simple_types@V?$Matrix@M$02$03$00@@@std@@@2@$00@std@@QAEAAV?$_Vector_val@U?$_Simple_types@V?$Matrix@M$02$03$00@@@std@@@2@XZ ; std::_Compressed_pair<std::_Wrap_alloc<std::allocator<Matrix<float,3,4,1> > >,std::_Vector_val<std::_Simple_types<Matrix<float,3,4,1> > >,1>::_Get_second
PUBLIC	??A?$Vector@M$02@@QBEMH@Z			; Vector<float,3>::operator[]
PUBLIC	??A?$Vector@M$03@@QBEMH@Z			; Vector<float,4>::operator[]
PUBLIC	??A?$Vector@M$01@@QBEMH@Z			; Vector<float,2>::operator[]
PUBLIC	?max_size@?$vector@V?$Matrix@M$01$01$00@@V?$allocator@V?$Matrix@M$01$01$00@@@std@@@std@@QBEIXZ ; std::vector<Matrix<float,2,2,1>,std::allocator<Matrix<float,2,2,1> > >::max_size
PUBLIC	?_Destroy@?$vector@V?$Matrix@M$01$01$00@@V?$allocator@V?$Matrix@M$01$01$00@@@std@@@std@@IAEXPAV?$Matrix@M$01$01$00@@0@Z ; std::vector<Matrix<float,2,2,1>,std::allocator<Matrix<float,2,2,1> > >::_Destroy
PUBLIC	?_Xlen@?$vector@V?$Matrix@M$01$01$00@@V?$allocator@V?$Matrix@M$01$01$00@@@std@@@std@@IBEXXZ ; std::vector<Matrix<float,2,2,1>,std::allocator<Matrix<float,2,2,1> > >::_Xlen
PUBLIC	?_Orphan_all@?$_Vector_alloc@U?$_Vec_base_types@V?$Matrix@M$01$01$00@@V?$allocator@V?$Matrix@M$01$01$00@@@std@@@std@@@std@@QAEXXZ ; std::_Vector_alloc<std::_Vec_base_types<Matrix<float,2,2,1>,std::allocator<Matrix<float,2,2,1> > > >::_Orphan_all
PUBLIC	?_Get_data@?$_Vector_alloc@U?$_Vec_base_types@V?$Matrix@M$01$01$00@@V?$allocator@V?$Matrix@M$01$01$00@@@std@@@std@@@std@@QAEAAV?$_Vector_val@U?$_Simple_types@V?$Matrix@M$01$01$00@@@std@@@2@XZ ; std::_Vector_alloc<std::_Vec_base_types<Matrix<float,2,2,1>,std::allocator<Matrix<float,2,2,1> > > >::_Get_data
PUBLIC	?_Myend@?$_Vector_alloc@U?$_Vec_base_types@V?$Matrix@M$01$01$00@@V?$allocator@V?$Matrix@M$01$01$00@@@std@@@std@@@std@@QAEAAPAV?$Matrix@M$01$01$00@@XZ ; std::_Vector_alloc<std::_Vec_base_types<Matrix<float,2,2,1>,std::allocator<Matrix<float,2,2,1> > > >::_Myend
PUBLIC	?allocate@?$_Wrap_alloc@V?$allocator@V?$Matrix@M$01$01$00@@@std@@@std@@QAEPAV?$Matrix@M$01$01$00@@I@Z ; std::_Wrap_alloc<std::allocator<Matrix<float,2,2,1> > >::allocate
PUBLIC	?deallocate@?$_Wrap_alloc@V?$allocator@V?$Matrix@M$01$01$00@@@std@@@std@@QAEXPAV?$Matrix@M$01$01$00@@I@Z ; std::_Wrap_alloc<std::allocator<Matrix<float,2,2,1> > >::deallocate
PUBLIC	?_Get_first@?$_Compressed_pair@U?$_Wrap_alloc@V?$allocator@V?$Matrix@M$01$01$00@@@std@@@std@@V?$_Vector_val@U?$_Simple_types@V?$Matrix@M$01$01$00@@@std@@@2@$00@std@@QAEAAU?$_Wrap_alloc@V?$allocator@V?$Matrix@M$01$01$00@@@std@@@2@XZ ; std::_Compressed_pair<std::_Wrap_alloc<std::allocator<Matrix<float,2,2,1> > >,std::_Vector_val<std::_Simple_types<Matrix<float,2,2,1> > >,1>::_Get_first
PUBLIC	?seed@?$linear_congruential@I$0LMIP@$0A@$0HPPPPPPP@@std@@QAEXI@Z ; std::linear_congruential<unsigned int,48271,0,2147483647>::seed
PUBLIC	??0?$_Mul_mod@_KI$0LMIP@$0A@$0HPPPPPPP@@std@@QAE@I@Z ; std::_Mul_mod<unsigned __int64,unsigned int,48271,0,2147483647>::_Mul_mod<unsigned __int64,unsigned int,48271,0,2147483647>
PUBLIC	??0param_type@?$uniform_real@M@std@@QAE@MM@Z	; std::uniform_real<float>::param_type::param_type
PUBLIC	?max_size@?$vector@V?$Matrix@M$02$02$00@@V?$allocator@V?$Matrix@M$02$02$00@@@std@@@std@@QBEIXZ ; std::vector<Matrix<float,3,3,1>,std::allocator<Matrix<float,3,3,1> > >::max_size
PUBLIC	?_Destroy@?$vector@V?$Matrix@M$02$02$00@@V?$allocator@V?$Matrix@M$02$02$00@@@std@@@std@@IAEXPAV?$Matrix@M$02$02$00@@0@Z ; std::vector<Matrix<float,3,3,1>,std::allocator<Matrix<float,3,3,1> > >::_Destroy
PUBLIC	?_Xlen@?$vector@V?$Matrix@M$02$02$00@@V?$allocator@V?$Matrix@M$02$02$00@@@std@@@std@@IBEXXZ ; std::vector<Matrix<float,3,3,1>,std::allocator<Matrix<float,3,3,1> > >::_Xlen
PUBLIC	?_Orphan_all@?$_Vector_alloc@U?$_Vec_base_types@V?$Matrix@M$02$02$00@@V?$allocator@V?$Matrix@M$02$02$00@@@std@@@std@@@std@@QAEXXZ ; std::_Vector_alloc<std::_Vec_base_types<Matrix<float,3,3,1>,std::allocator<Matrix<float,3,3,1> > > >::_Orphan_all
PUBLIC	?_Get_data@?$_Vector_alloc@U?$_Vec_base_types@V?$Matrix@M$02$02$00@@V?$allocator@V?$Matrix@M$02$02$00@@@std@@@std@@@std@@QAEAAV?$_Vector_val@U?$_Simple_types@V?$Matrix@M$02$02$00@@@std@@@2@XZ ; std::_Vector_alloc<std::_Vec_base_types<Matrix<float,3,3,1>,std::allocator<Matrix<float,3,3,1> > > >::_Get_data
PUBLIC	?_Myend@?$_Vector_alloc@U?$_Vec_base_types@V?$Matrix@M$02$02$00@@V?$allocator@V?$Matrix@M$02$02$00@@@std@@@std@@@std@@QAEAAPAV?$Matrix@M$02$02$00@@XZ ; std::_Vector_alloc<std::_Vec_base_types<Matrix<float,3,3,1>,std::allocator<Matrix<float,3,3,1> > > >::_Myend
PUBLIC	?allocate@?$_Wrap_alloc@V?$allocator@V?$Matrix@M$02$02$00@@@std@@@std@@QAEPAV?$Matrix@M$02$02$00@@I@Z ; std::_Wrap_alloc<std::allocator<Matrix<float,3,3,1> > >::allocate
PUBLIC	?deallocate@?$_Wrap_alloc@V?$allocator@V?$Matrix@M$02$02$00@@@std@@@std@@QAEXPAV?$Matrix@M$02$02$00@@I@Z ; std::_Wrap_alloc<std::allocator<Matrix<float,3,3,1> > >::deallocate
PUBLIC	?_Get_first@?$_Compressed_pair@U?$_Wrap_alloc@V?$allocator@V?$Matrix@M$02$02$00@@@std@@@std@@V?$_Vector_val@U?$_Simple_types@V?$Matrix@M$02$02$00@@@std@@@2@$00@std@@QAEAAU?$_Wrap_alloc@V?$allocator@V?$Matrix@M$02$02$00@@@std@@@2@XZ ; std::_Compressed_pair<std::_Wrap_alloc<std::allocator<Matrix<float,3,3,1> > >,std::_Vector_val<std::_Simple_types<Matrix<float,3,3,1> > >,1>::_Get_first
PUBLIC	?max_size@?$vector@V?$Matrix@M$03$03$00@@V?$allocator@V?$Matrix@M$03$03$00@@@std@@@std@@QBEIXZ ; std::vector<Matrix<float,4,4,1>,std::allocator<Matrix<float,4,4,1> > >::max_size
PUBLIC	?_Destroy@?$vector@V?$Matrix@M$03$03$00@@V?$allocator@V?$Matrix@M$03$03$00@@@std@@@std@@IAEXPAV?$Matrix@M$03$03$00@@0@Z ; std::vector<Matrix<float,4,4,1>,std::allocator<Matrix<float,4,4,1> > >::_Destroy
PUBLIC	?_Xlen@?$vector@V?$Matrix@M$03$03$00@@V?$allocator@V?$Matrix@M$03$03$00@@@std@@@std@@IBEXXZ ; std::vector<Matrix<float,4,4,1>,std::allocator<Matrix<float,4,4,1> > >::_Xlen
PUBLIC	?_Orphan_all@?$_Vector_alloc@U?$_Vec_base_types@V?$Matrix@M$03$03$00@@V?$allocator@V?$Matrix@M$03$03$00@@@std@@@std@@@std@@QAEXXZ ; std::_Vector_alloc<std::_Vec_base_types<Matrix<float,4,4,1>,std::allocator<Matrix<float,4,4,1> > > >::_Orphan_all
PUBLIC	?_Get_data@?$_Vector_alloc@U?$_Vec_base_types@V?$Matrix@M$03$03$00@@V?$allocator@V?$Matrix@M$03$03$00@@@std@@@std@@@std@@QAEAAV?$_Vector_val@U?$_Simple_types@V?$Matrix@M$03$03$00@@@std@@@2@XZ ; std::_Vector_alloc<std::_Vec_base_types<Matrix<float,4,4,1>,std::allocator<Matrix<float,4,4,1> > > >::_Get_data
PUBLIC	?_Myend@?$_Vector_alloc@U?$_Vec_base_types@V?$Matrix@M$03$03$00@@V?$allocator@V?$Matrix@M$03$03$00@@@std@@@std@@@std@@QAEAAPAV?$Matrix@M$03$03$00@@XZ ; std::_Vector_alloc<std::_Vec_base_types<Matrix<float,4,4,1>,std::allocator<Matrix<float,4,4,1> > > >::_Myend
PUBLIC	?allocate@?$_Wrap_alloc@V?$allocator@V?$Matrix@M$03$03$00@@@std@@@std@@QAEPAV?$Matrix@M$03$03$00@@I@Z ; std::_Wrap_alloc<std::allocator<Matrix<float,4,4,1> > >::allocate
PUBLIC	?deallocate@?$_Wrap_alloc@V?$allocator@V?$Matrix@M$03$03$00@@@std@@@std@@QAEXPAV?$Matrix@M$03$03$00@@I@Z ; std::_Wrap_alloc<std::allocator<Matrix<float,4,4,1> > >::deallocate
PUBLIC	?_Get_first@?$_Compressed_pair@U?$_Wrap_alloc@V?$allocator@V?$Matrix@M$03$03$00@@@std@@@std@@V?$_Vector_val@U?$_Simple_types@V?$Matrix@M$03$03$00@@@std@@@2@$00@std@@QAEAAU?$_Wrap_alloc@V?$allocator@V?$Matrix@M$03$03$00@@@std@@@2@XZ ; std::_Compressed_pair<std::_Wrap_alloc<std::allocator<Matrix<float,4,4,1> > >,std::_Vector_val<std::_Simple_types<Matrix<float,4,4,1> > >,1>::_Get_first
PUBLIC	?max_size@?$vector@V?$Matrix@M$03$01$00@@V?$allocator@V?$Matrix@M$03$01$00@@@std@@@std@@QBEIXZ ; std::vector<Matrix<float,4,2,1>,std::allocator<Matrix<float,4,2,1> > >::max_size
PUBLIC	?_Destroy@?$vector@V?$Matrix@M$03$01$00@@V?$allocator@V?$Matrix@M$03$01$00@@@std@@@std@@IAEXPAV?$Matrix@M$03$01$00@@0@Z ; std::vector<Matrix<float,4,2,1>,std::allocator<Matrix<float,4,2,1> > >::_Destroy
PUBLIC	?_Xlen@?$vector@V?$Matrix@M$03$01$00@@V?$allocator@V?$Matrix@M$03$01$00@@@std@@@std@@IBEXXZ ; std::vector<Matrix<float,4,2,1>,std::allocator<Matrix<float,4,2,1> > >::_Xlen
PUBLIC	?_Orphan_all@?$_Vector_alloc@U?$_Vec_base_types@V?$Matrix@M$03$01$00@@V?$allocator@V?$Matrix@M$03$01$00@@@std@@@std@@@std@@QAEXXZ ; std::_Vector_alloc<std::_Vec_base_types<Matrix<float,4,2,1>,std::allocator<Matrix<float,4,2,1> > > >::_Orphan_all
PUBLIC	?_Get_data@?$_Vector_alloc@U?$_Vec_base_types@V?$Matrix@M$03$01$00@@V?$allocator@V?$Matrix@M$03$01$00@@@std@@@std@@@std@@QAEAAV?$_Vector_val@U?$_Simple_types@V?$Matrix@M$03$01$00@@@std@@@2@XZ ; std::_Vector_alloc<std::_Vec_base_types<Matrix<float,4,2,1>,std::allocator<Matrix<float,4,2,1> > > >::_Get_data
PUBLIC	?_Myend@?$_Vector_alloc@U?$_Vec_base_types@V?$Matrix@M$03$01$00@@V?$allocator@V?$Matrix@M$03$01$00@@@std@@@std@@@std@@QAEAAPAV?$Matrix@M$03$01$00@@XZ ; std::_Vector_alloc<std::_Vec_base_types<Matrix<float,4,2,1>,std::allocator<Matrix<float,4,2,1> > > >::_Myend
PUBLIC	?allocate@?$_Wrap_alloc@V?$allocator@V?$Matrix@M$03$01$00@@@std@@@std@@QAEPAV?$Matrix@M$03$01$00@@I@Z ; std::_Wrap_alloc<std::allocator<Matrix<float,4,2,1> > >::allocate
PUBLIC	?deallocate@?$_Wrap_alloc@V?$allocator@V?$Matrix@M$03$01$00@@@std@@@std@@QAEXPAV?$Matrix@M$03$01$00@@I@Z ; std::_Wrap_alloc<std::allocator<Matrix<float,4,2,1> > >::deallocate
PUBLIC	?_Get_first@?$_Compressed_pair@U?$_Wrap_alloc@V?$allocator@V?$Matrix@M$03$01$00@@@std@@@std@@V?$_Vector_val@U?$_Simple_types@V?$Matrix@M$03$01$00@@@std@@@2@$00@std@@QAEAAU?$_Wrap_alloc@V?$allocator@V?$Matrix@M$03$01$00@@@std@@@2@XZ ; std::_Compressed_pair<std::_Wrap_alloc<std::allocator<Matrix<float,4,2,1> > >,std::_Vector_val<std::_Simple_types<Matrix<float,4,2,1> > >,1>::_Get_first
PUBLIC	?max_size@?$vector@V?$Matrix@M$01$03$00@@V?$allocator@V?$Matrix@M$01$03$00@@@std@@@std@@QBEIXZ ; std::vector<Matrix<float,2,4,1>,std::allocator<Matrix<float,2,4,1> > >::max_size
PUBLIC	?_Destroy@?$vector@V?$Matrix@M$01$03$00@@V?$allocator@V?$Matrix@M$01$03$00@@@std@@@std@@IAEXPAV?$Matrix@M$01$03$00@@0@Z ; std::vector<Matrix<float,2,4,1>,std::allocator<Matrix<float,2,4,1> > >::_Destroy
PUBLIC	?_Xlen@?$vector@V?$Matrix@M$01$03$00@@V?$allocator@V?$Matrix@M$01$03$00@@@std@@@std@@IBEXXZ ; std::vector<Matrix<float,2,4,1>,std::allocator<Matrix<float,2,4,1> > >::_Xlen
PUBLIC	?_Orphan_all@?$_Vector_alloc@U?$_Vec_base_types@V?$Matrix@M$01$03$00@@V?$allocator@V?$Matrix@M$01$03$00@@@std@@@std@@@std@@QAEXXZ ; std::_Vector_alloc<std::_Vec_base_types<Matrix<float,2,4,1>,std::allocator<Matrix<float,2,4,1> > > >::_Orphan_all
PUBLIC	?_Get_data@?$_Vector_alloc@U?$_Vec_base_types@V?$Matrix@M$01$03$00@@V?$allocator@V?$Matrix@M$01$03$00@@@std@@@std@@@std@@QAEAAV?$_Vector_val@U?$_Simple_types@V?$Matrix@M$01$03$00@@@std@@@2@XZ ; std::_Vector_alloc<std::_Vec_base_types<Matrix<float,2,4,1>,std::allocator<Matrix<float,2,4,1> > > >::_Get_data
PUBLIC	?_Myend@?$_Vector_alloc@U?$_Vec_base_types@V?$Matrix@M$01$03$00@@V?$allocator@V?$Matrix@M$01$03$00@@@std@@@std@@@std@@QAEAAPAV?$Matrix@M$01$03$00@@XZ ; std::_Vector_alloc<std::_Vec_base_types<Matrix<float,2,4,1>,std::allocator<Matrix<float,2,4,1> > > >::_Myend
PUBLIC	?allocate@?$_Wrap_alloc@V?$allocator@V?$Matrix@M$01$03$00@@@std@@@std@@QAEPAV?$Matrix@M$01$03$00@@I@Z ; std::_Wrap_alloc<std::allocator<Matrix<float,2,4,1> > >::allocate
PUBLIC	?deallocate@?$_Wrap_alloc@V?$allocator@V?$Matrix@M$01$03$00@@@std@@@std@@QAEXPAV?$Matrix@M$01$03$00@@I@Z ; std::_Wrap_alloc<std::allocator<Matrix<float,2,4,1> > >::deallocate
PUBLIC	?_Get_first@?$_Compressed_pair@U?$_Wrap_alloc@V?$allocator@V?$Matrix@M$01$03$00@@@std@@@std@@V?$_Vector_val@U?$_Simple_types@V?$Matrix@M$01$03$00@@@std@@@2@$00@std@@QAEAAU?$_Wrap_alloc@V?$allocator@V?$Matrix@M$01$03$00@@@std@@@2@XZ ; std::_Compressed_pair<std::_Wrap_alloc<std::allocator<Matrix<float,2,4,1> > >,std::_Vector_val<std::_Simple_types<Matrix<float,2,4,1> > >,1>::_Get_first
PUBLIC	?max_size@?$vector@V?$Matrix@M$03$02$00@@V?$allocator@V?$Matrix@M$03$02$00@@@std@@@std@@QBEIXZ ; std::vector<Matrix<float,4,3,1>,std::allocator<Matrix<float,4,3,1> > >::max_size
PUBLIC	?_Destroy@?$vector@V?$Matrix@M$03$02$00@@V?$allocator@V?$Matrix@M$03$02$00@@@std@@@std@@IAEXPAV?$Matrix@M$03$02$00@@0@Z ; std::vector<Matrix<float,4,3,1>,std::allocator<Matrix<float,4,3,1> > >::_Destroy
PUBLIC	?_Xlen@?$vector@V?$Matrix@M$03$02$00@@V?$allocator@V?$Matrix@M$03$02$00@@@std@@@std@@IBEXXZ ; std::vector<Matrix<float,4,3,1>,std::allocator<Matrix<float,4,3,1> > >::_Xlen
PUBLIC	?_Orphan_all@?$_Vector_alloc@U?$_Vec_base_types@V?$Matrix@M$03$02$00@@V?$allocator@V?$Matrix@M$03$02$00@@@std@@@std@@@std@@QAEXXZ ; std::_Vector_alloc<std::_Vec_base_types<Matrix<float,4,3,1>,std::allocator<Matrix<float,4,3,1> > > >::_Orphan_all
PUBLIC	?_Get_data@?$_Vector_alloc@U?$_Vec_base_types@V?$Matrix@M$03$02$00@@V?$allocator@V?$Matrix@M$03$02$00@@@std@@@std@@@std@@QAEAAV?$_Vector_val@U?$_Simple_types@V?$Matrix@M$03$02$00@@@std@@@2@XZ ; std::_Vector_alloc<std::_Vec_base_types<Matrix<float,4,3,1>,std::allocator<Matrix<float,4,3,1> > > >::_Get_data
PUBLIC	?_Myend@?$_Vector_alloc@U?$_Vec_base_types@V?$Matrix@M$03$02$00@@V?$allocator@V?$Matrix@M$03$02$00@@@std@@@std@@@std@@QAEAAPAV?$Matrix@M$03$02$00@@XZ ; std::_Vector_alloc<std::_Vec_base_types<Matrix<float,4,3,1>,std::allocator<Matrix<float,4,3,1> > > >::_Myend
PUBLIC	?allocate@?$_Wrap_alloc@V?$allocator@V?$Matrix@M$03$02$00@@@std@@@std@@QAEPAV?$Matrix@M$03$02$00@@I@Z ; std::_Wrap_alloc<std::allocator<Matrix<float,4,3,1> > >::allocate
PUBLIC	?deallocate@?$_Wrap_alloc@V?$allocator@V?$Matrix@M$03$02$00@@@std@@@std@@QAEXPAV?$Matrix@M$03$02$00@@I@Z ; std::_Wrap_alloc<std::allocator<Matrix<float,4,3,1> > >::deallocate
PUBLIC	?_Get_first@?$_Compressed_pair@U?$_Wrap_alloc@V?$allocator@V?$Matrix@M$03$02$00@@@std@@@std@@V?$_Vector_val@U?$_Simple_types@V?$Matrix@M$03$02$00@@@std@@@2@$00@std@@QAEAAU?$_Wrap_alloc@V?$allocator@V?$Matrix@M$03$02$00@@@std@@@2@XZ ; std::_Compressed_pair<std::_Wrap_alloc<std::allocator<Matrix<float,4,3,1> > >,std::_Vector_val<std::_Simple_types<Matrix<float,4,3,1> > >,1>::_Get_first
PUBLIC	?max_size@?$vector@V?$Matrix@M$02$03$00@@V?$allocator@V?$Matrix@M$02$03$00@@@std@@@std@@QBEIXZ ; std::vector<Matrix<float,3,4,1>,std::allocator<Matrix<float,3,4,1> > >::max_size
PUBLIC	?_Destroy@?$vector@V?$Matrix@M$02$03$00@@V?$allocator@V?$Matrix@M$02$03$00@@@std@@@std@@IAEXPAV?$Matrix@M$02$03$00@@0@Z ; std::vector<Matrix<float,3,4,1>,std::allocator<Matrix<float,3,4,1> > >::_Destroy
PUBLIC	?_Xlen@?$vector@V?$Matrix@M$02$03$00@@V?$allocator@V?$Matrix@M$02$03$00@@@std@@@std@@IBEXXZ ; std::vector<Matrix<float,3,4,1>,std::allocator<Matrix<float,3,4,1> > >::_Xlen
PUBLIC	?_Orphan_all@?$_Vector_alloc@U?$_Vec_base_types@V?$Matrix@M$02$03$00@@V?$allocator@V?$Matrix@M$02$03$00@@@std@@@std@@@std@@QAEXXZ ; std::_Vector_alloc<std::_Vec_base_types<Matrix<float,3,4,1>,std::allocator<Matrix<float,3,4,1> > > >::_Orphan_all
PUBLIC	?_Get_data@?$_Vector_alloc@U?$_Vec_base_types@V?$Matrix@M$02$03$00@@V?$allocator@V?$Matrix@M$02$03$00@@@std@@@std@@@std@@QAEAAV?$_Vector_val@U?$_Simple_types@V?$Matrix@M$02$03$00@@@std@@@2@XZ ; std::_Vector_alloc<std::_Vec_base_types<Matrix<float,3,4,1>,std::allocator<Matrix<float,3,4,1> > > >::_Get_data
PUBLIC	?_Myend@?$_Vector_alloc@U?$_Vec_base_types@V?$Matrix@M$02$03$00@@V?$allocator@V?$Matrix@M$02$03$00@@@std@@@std@@@std@@QAEAAPAV?$Matrix@M$02$03$00@@XZ ; std::_Vector_alloc<std::_Vec_base_types<Matrix<float,3,4,1>,std::allocator<Matrix<float,3,4,1> > > >::_Myend
PUBLIC	?allocate@?$_Wrap_alloc@V?$allocator@V?$Matrix@M$02$03$00@@@std@@@std@@QAEPAV?$Matrix@M$02$03$00@@I@Z ; std::_Wrap_alloc<std::allocator<Matrix<float,3,4,1> > >::allocate
PUBLIC	?deallocate@?$_Wrap_alloc@V?$allocator@V?$Matrix@M$02$03$00@@@std@@@std@@QAEXPAV?$Matrix@M$02$03$00@@I@Z ; std::_Wrap_alloc<std::allocator<Matrix<float,3,4,1> > >::deallocate
PUBLIC	?_Get_first@?$_Compressed_pair@U?$_Wrap_alloc@V?$allocator@V?$Matrix@M$02$03$00@@@std@@@std@@V?$_Vector_val@U?$_Simple_types@V?$Matrix@M$02$03$00@@@std@@@2@$00@std@@QAEAAU?$_Wrap_alloc@V?$allocator@V?$Matrix@M$02$03$00@@@std@@@2@XZ ; std::_Compressed_pair<std::_Wrap_alloc<std::allocator<Matrix<float,3,4,1> > >,std::_Vector_val<std::_Simple_types<Matrix<float,3,4,1> > >,1>::_Get_first
PUBLIC	?zero@?$duration_values@_J@chrono@std@@SA_JXZ	; std::chrono::duration_values<__int64>::zero
PUBLIC	?zero@?$duration@_JU?$ratio@$00$0DLJKMKAA@@std@@@chrono@std@@SA?AV123@XZ ; std::chrono::duration<__int64,std::ratio<1,1000000000> >::zero
PUBLIC	?Assign@?$Vector@M$03@@IAEXABV1@@Z		; Vector<float,4>::Assign
PUBLIC	?GetElement@?$MatrixData@M$03$03$00@@QBEMHH@Z	; MatrixData<float,4,4,1>::GetElement
PUBLIC	?GetElement@?$MatrixData@M$02$02$00@@QBEMHH@Z	; MatrixData<float,3,3,1>::GetElement
PUBLIC	?GetElement@?$MatrixData@M$03$01$00@@QBEMHH@Z	; MatrixData<float,4,2,1>::GetElement
PUBLIC	?GetElement@?$MatrixData@M$01$03$00@@QBEMHH@Z	; MatrixData<float,2,4,1>::GetElement
PUBLIC	?Assign@?$Vector@M$01@@IAEXABV1@@Z		; Vector<float,2>::Assign
PUBLIC	?GetElement@?$MatrixData@M$01$01$00@@QAEAAMHH@Z	; MatrixData<float,2,2,1>::GetElement
PUBLIC	?GetElement@?$MatrixData@M$01$01$00@@QBEMHH@Z	; MatrixData<float,2,2,1>::GetElement
PUBLIC	?_Buy@?$vector@V?$Matrix@M$01$01$00@@V?$allocator@V?$Matrix@M$01$01$00@@@std@@@std@@IAE_NI@Z ; std::vector<Matrix<float,2,2,1>,std::allocator<Matrix<float,2,2,1> > >::_Buy
PUBLIC	?_Tidy@?$vector@V?$Matrix@M$01$01$00@@V?$allocator@V?$Matrix@M$01$01$00@@@std@@@std@@IAEXXZ ; std::vector<Matrix<float,2,2,1>,std::allocator<Matrix<float,2,2,1> > >::_Tidy
PUBLIC	??0?$_Vector_alloc@U?$_Vec_base_types@V?$Matrix@M$01$01$00@@V?$allocator@V?$Matrix@M$01$01$00@@@std@@@std@@@std@@QAE@XZ ; std::_Vector_alloc<std::_Vec_base_types<Matrix<float,2,2,1>,std::allocator<Matrix<float,2,2,1> > > >::_Vector_alloc<std::_Vec_base_types<Matrix<float,2,2,1>,std::allocator<Matrix<float,2,2,1> > > >
PUBLIC	?_Getal@?$_Vector_alloc@U?$_Vec_base_types@V?$Matrix@M$01$01$00@@V?$allocator@V?$Matrix@M$01$01$00@@@std@@@std@@@std@@QAEAAU?$_Wrap_alloc@V?$allocator@V?$Matrix@M$01$01$00@@@std@@@2@XZ ; std::_Vector_alloc<std::_Vec_base_types<Matrix<float,2,2,1>,std::allocator<Matrix<float,2,2,1> > > >::_Getal
PUBLIC	?_Myfirst@?$_Vector_alloc@U?$_Vec_base_types@V?$Matrix@M$01$01$00@@V?$allocator@V?$Matrix@M$01$01$00@@@std@@@std@@@std@@QAEAAPAV?$Matrix@M$01$01$00@@XZ ; std::_Vector_alloc<std::_Vec_base_types<Matrix<float,2,2,1>,std::allocator<Matrix<float,2,2,1> > > >::_Myfirst
PUBLIC	?_Mylast@?$_Vector_alloc@U?$_Vec_base_types@V?$Matrix@M$01$01$00@@V?$allocator@V?$Matrix@M$01$01$00@@@std@@@std@@@std@@QAEAAPAV?$Matrix@M$01$01$00@@XZ ; std::_Vector_alloc<std::_Vec_base_types<Matrix<float,2,2,1>,std::allocator<Matrix<float,2,2,1> > > >::_Mylast
PUBLIC	??0?$linear_congruential@I$0LMIP@$0A@$0HPPPPPPP@@std@@QAE@I@Z ; std::linear_congruential<unsigned int,48271,0,2147483647>::linear_congruential<unsigned int,48271,0,2147483647>
PUBLIC	??0?$uniform_real@M@std@@QAE@MM@Z		; std::uniform_real<float>::uniform_real<float>
PUBLIC	?_Buy@?$vector@V?$Matrix@M$02$02$00@@V?$allocator@V?$Matrix@M$02$02$00@@@std@@@std@@IAE_NI@Z ; std::vector<Matrix<float,3,3,1>,std::allocator<Matrix<float,3,3,1> > >::_Buy
PUBLIC	?_Tidy@?$vector@V?$Matrix@M$02$02$00@@V?$allocator@V?$Matrix@M$02$02$00@@@std@@@std@@IAEXXZ ; std::vector<Matrix<float,3,3,1>,std::allocator<Matrix<float,3,3,1> > >::_Tidy
PUBLIC	??0?$_Vector_alloc@U?$_Vec_base_types@V?$Matrix@M$02$02$00@@V?$allocator@V?$Matrix@M$02$02$00@@@std@@@std@@@std@@QAE@XZ ; std::_Vector_alloc<std::_Vec_base_types<Matrix<float,3,3,1>,std::allocator<Matrix<float,3,3,1> > > >::_Vector_alloc<std::_Vec_base_types<Matrix<float,3,3,1>,std::allocator<Matrix<float,3,3,1> > > >
PUBLIC	?_Getal@?$_Vector_alloc@U?$_Vec_base_types@V?$Matrix@M$02$02$00@@V?$allocator@V?$Matrix@M$02$02$00@@@std@@@std@@@std@@QAEAAU?$_Wrap_alloc@V?$allocator@V?$Matrix@M$02$02$00@@@std@@@2@XZ ; std::_Vector_alloc<std::_Vec_base_types<Matrix<float,3,3,1>,std::allocator<Matrix<float,3,3,1> > > >::_Getal
PUBLIC	?_Myfirst@?$_Vector_alloc@U?$_Vec_base_types@V?$Matrix@M$02$02$00@@V?$allocator@V?$Matrix@M$02$02$00@@@std@@@std@@@std@@QAEAAPAV?$Matrix@M$02$02$00@@XZ ; std::_Vector_alloc<std::_Vec_base_types<Matrix<float,3,3,1>,std::allocator<Matrix<float,3,3,1> > > >::_Myfirst
PUBLIC	?_Mylast@?$_Vector_alloc@U?$_Vec_base_types@V?$Matrix@M$02$02$00@@V?$allocator@V?$Matrix@M$02$02$00@@@std@@@std@@@std@@QAEAAPAV?$Matrix@M$02$02$00@@XZ ; std::_Vector_alloc<std::_Vec_base_types<Matrix<float,3,3,1>,std::allocator<Matrix<float,3,3,1> > > >::_Mylast
PUBLIC	?_Buy@?$vector@V?$Matrix@M$03$03$00@@V?$allocator@V?$Matrix@M$03$03$00@@@std@@@std@@IAE_NI@Z ; std::vector<Matrix<float,4,4,1>,std::allocator<Matrix<float,4,4,1> > >::_Buy
PUBLIC	?_Tidy@?$vector@V?$Matrix@M$03$03$00@@V?$allocator@V?$Matrix@M$03$03$00@@@std@@@std@@IAEXXZ ; std::vector<Matrix<float,4,4,1>,std::allocator<Matrix<float,4,4,1> > >::_Tidy
PUBLIC	??0?$_Vector_alloc@U?$_Vec_base_types@V?$Matrix@M$03$03$00@@V?$allocator@V?$Matrix@M$03$03$00@@@std@@@std@@@std@@QAE@XZ ; std::_Vector_alloc<std::_Vec_base_types<Matrix<float,4,4,1>,std::allocator<Matrix<float,4,4,1> > > >::_Vector_alloc<std::_Vec_base_types<Matrix<float,4,4,1>,std::allocator<Matrix<float,4,4,1> > > >
PUBLIC	?_Getal@?$_Vector_alloc@U?$_Vec_base_types@V?$Matrix@M$03$03$00@@V?$allocator@V?$Matrix@M$03$03$00@@@std@@@std@@@std@@QAEAAU?$_Wrap_alloc@V?$allocator@V?$Matrix@M$03$03$00@@@std@@@2@XZ ; std::_Vector_alloc<std::_Vec_base_types<Matrix<float,4,4,1>,std::allocator<Matrix<float,4,4,1> > > >::_Getal
PUBLIC	?_Myfirst@?$_Vector_alloc@U?$_Vec_base_types@V?$Matrix@M$03$03$00@@V?$allocator@V?$Matrix@M$03$03$00@@@std@@@std@@@std@@QAEAAPAV?$Matrix@M$03$03$00@@XZ ; std::_Vector_alloc<std::_Vec_base_types<Matrix<float,4,4,1>,std::allocator<Matrix<float,4,4,1> > > >::_Myfirst
PUBLIC	?_Mylast@?$_Vector_alloc@U?$_Vec_base_types@V?$Matrix@M$03$03$00@@V?$allocator@V?$Matrix@M$03$03$00@@@std@@@std@@@std@@QAEAAPAV?$Matrix@M$03$03$00@@XZ ; std::_Vector_alloc<std::_Vec_base_types<Matrix<float,4,4,1>,std::allocator<Matrix<float,4,4,1> > > >::_Mylast
PUBLIC	?_Buy@?$vector@V?$Matrix@M$03$01$00@@V?$allocator@V?$Matrix@M$03$01$00@@@std@@@std@@IAE_NI@Z ; std::vector<Matrix<float,4,2,1>,std::allocator<Matrix<float,4,2,1> > >::_Buy
PUBLIC	?_Tidy@?$vector@V?$Matrix@M$03$01$00@@V?$allocator@V?$Matrix@M$03$01$00@@@std@@@std@@IAEXXZ ; std::vector<Matrix<float,4,2,1>,std::allocator<Matrix<float,4,2,1> > >::_Tidy
PUBLIC	??0?$_Vector_alloc@U?$_Vec_base_types@V?$Matrix@M$03$01$00@@V?$allocator@V?$Matrix@M$03$01$00@@@std@@@std@@@std@@QAE@XZ ; std::_Vector_alloc<std::_Vec_base_types<Matrix<float,4,2,1>,std::allocator<Matrix<float,4,2,1> > > >::_Vector_alloc<std::_Vec_base_types<Matrix<float,4,2,1>,std::allocator<Matrix<float,4,2,1> > > >
PUBLIC	?_Getal@?$_Vector_alloc@U?$_Vec_base_types@V?$Matrix@M$03$01$00@@V?$allocator@V?$Matrix@M$03$01$00@@@std@@@std@@@std@@QAEAAU?$_Wrap_alloc@V?$allocator@V?$Matrix@M$03$01$00@@@std@@@2@XZ ; std::_Vector_alloc<std::_Vec_base_types<Matrix<float,4,2,1>,std::allocator<Matrix<float,4,2,1> > > >::_Getal
PUBLIC	?_Myfirst@?$_Vector_alloc@U?$_Vec_base_types@V?$Matrix@M$03$01$00@@V?$allocator@V?$Matrix@M$03$01$00@@@std@@@std@@@std@@QAEAAPAV?$Matrix@M$03$01$00@@XZ ; std::_Vector_alloc<std::_Vec_base_types<Matrix<float,4,2,1>,std::allocator<Matrix<float,4,2,1> > > >::_Myfirst
PUBLIC	?_Mylast@?$_Vector_alloc@U?$_Vec_base_types@V?$Matrix@M$03$01$00@@V?$allocator@V?$Matrix@M$03$01$00@@@std@@@std@@@std@@QAEAAPAV?$Matrix@M$03$01$00@@XZ ; std::_Vector_alloc<std::_Vec_base_types<Matrix<float,4,2,1>,std::allocator<Matrix<float,4,2,1> > > >::_Mylast
PUBLIC	?_Buy@?$vector@V?$Matrix@M$01$03$00@@V?$allocator@V?$Matrix@M$01$03$00@@@std@@@std@@IAE_NI@Z ; std::vector<Matrix<float,2,4,1>,std::allocator<Matrix<float,2,4,1> > >::_Buy
PUBLIC	?_Tidy@?$vector@V?$Matrix@M$01$03$00@@V?$allocator@V?$Matrix@M$01$03$00@@@std@@@std@@IAEXXZ ; std::vector<Matrix<float,2,4,1>,std::allocator<Matrix<float,2,4,1> > >::_Tidy
PUBLIC	??0?$_Vector_alloc@U?$_Vec_base_types@V?$Matrix@M$01$03$00@@V?$allocator@V?$Matrix@M$01$03$00@@@std@@@std@@@std@@QAE@XZ ; std::_Vector_alloc<std::_Vec_base_types<Matrix<float,2,4,1>,std::allocator<Matrix<float,2,4,1> > > >::_Vector_alloc<std::_Vec_base_types<Matrix<float,2,4,1>,std::allocator<Matrix<float,2,4,1> > > >
PUBLIC	?_Getal@?$_Vector_alloc@U?$_Vec_base_types@V?$Matrix@M$01$03$00@@V?$allocator@V?$Matrix@M$01$03$00@@@std@@@std@@@std@@QAEAAU?$_Wrap_alloc@V?$allocator@V?$Matrix@M$01$03$00@@@std@@@2@XZ ; std::_Vector_alloc<std::_Vec_base_types<Matrix<float,2,4,1>,std::allocator<Matrix<float,2,4,1> > > >::_Getal
PUBLIC	?_Myfirst@?$_Vector_alloc@U?$_Vec_base_types@V?$Matrix@M$01$03$00@@V?$allocator@V?$Matrix@M$01$03$00@@@std@@@std@@@std@@QAEAAPAV?$Matrix@M$01$03$00@@XZ ; std::_Vector_alloc<std::_Vec_base_types<Matrix<float,2,4,1>,std::allocator<Matrix<float,2,4,1> > > >::_Myfirst
PUBLIC	?_Mylast@?$_Vector_alloc@U?$_Vec_base_types@V?$Matrix@M$01$03$00@@V?$allocator@V?$Matrix@M$01$03$00@@@std@@@std@@@std@@QAEAAPAV?$Matrix@M$01$03$00@@XZ ; std::_Vector_alloc<std::_Vec_base_types<Matrix<float,2,4,1>,std::allocator<Matrix<float,2,4,1> > > >::_Mylast
PUBLIC	?GetElement@?$MatrixData@M$03$02$00@@QAEAAMHH@Z	; MatrixData<float,4,3,1>::GetElement
PUBLIC	?GetElement@?$MatrixData@M$02$03$00@@QAEAAMHH@Z	; MatrixData<float,3,4,1>::GetElement
PUBLIC	?_Buy@?$vector@V?$Matrix@M$03$02$00@@V?$allocator@V?$Matrix@M$03$02$00@@@std@@@std@@IAE_NI@Z ; std::vector<Matrix<float,4,3,1>,std::allocator<Matrix<float,4,3,1> > >::_Buy
PUBLIC	?_Tidy@?$vector@V?$Matrix@M$03$02$00@@V?$allocator@V?$Matrix@M$03$02$00@@@std@@@std@@IAEXXZ ; std::vector<Matrix<float,4,3,1>,std::allocator<Matrix<float,4,3,1> > >::_Tidy
PUBLIC	??0?$_Vector_alloc@U?$_Vec_base_types@V?$Matrix@M$03$02$00@@V?$allocator@V?$Matrix@M$03$02$00@@@std@@@std@@@std@@QAE@XZ ; std::_Vector_alloc<std::_Vec_base_types<Matrix<float,4,3,1>,std::allocator<Matrix<float,4,3,1> > > >::_Vector_alloc<std::_Vec_base_types<Matrix<float,4,3,1>,std::allocator<Matrix<float,4,3,1> > > >
PUBLIC	?_Getal@?$_Vector_alloc@U?$_Vec_base_types@V?$Matrix@M$03$02$00@@V?$allocator@V?$Matrix@M$03$02$00@@@std@@@std@@@std@@QAEAAU?$_Wrap_alloc@V?$allocator@V?$Matrix@M$03$02$00@@@std@@@2@XZ ; std::_Vector_alloc<std::_Vec_base_types<Matrix<float,4,3,1>,std::allocator<Matrix<float,4,3,1> > > >::_Getal
PUBLIC	?_Myfirst@?$_Vector_alloc@U?$_Vec_base_types@V?$Matrix@M$03$02$00@@V?$allocator@V?$Matrix@M$03$02$00@@@std@@@std@@@std@@QAEAAPAV?$Matrix@M$03$02$00@@XZ ; std::_Vector_alloc<std::_Vec_base_types<Matrix<float,4,3,1>,std::allocator<Matrix<float,4,3,1> > > >::_Myfirst
PUBLIC	?_Mylast@?$_Vector_alloc@U?$_Vec_base_types@V?$Matrix@M$03$02$00@@V?$allocator@V?$Matrix@M$03$02$00@@@std@@@std@@@std@@QAEAAPAV?$Matrix@M$03$02$00@@XZ ; std::_Vector_alloc<std::_Vec_base_types<Matrix<float,4,3,1>,std::allocator<Matrix<float,4,3,1> > > >::_Mylast
PUBLIC	?_Buy@?$vector@V?$Matrix@M$02$03$00@@V?$allocator@V?$Matrix@M$02$03$00@@@std@@@std@@IAE_NI@Z ; std::vector<Matrix<float,3,4,1>,std::allocator<Matrix<float,3,4,1> > >::_Buy
PUBLIC	?_Tidy@?$vector@V?$Matrix@M$02$03$00@@V?$allocator@V?$Matrix@M$02$03$00@@@std@@@std@@IAEXXZ ; std::vector<Matrix<float,3,4,1>,std::allocator<Matrix<float,3,4,1> > >::_Tidy
PUBLIC	??0?$_Vector_alloc@U?$_Vec_base_types@V?$Matrix@M$02$03$00@@V?$allocator@V?$Matrix@M$02$03$00@@@std@@@std@@@std@@QAE@XZ ; std::_Vector_alloc<std::_Vec_base_types<Matrix<float,3,4,1>,std::allocator<Matrix<float,3,4,1> > > >::_Vector_alloc<std::_Vec_base_types<Matrix<float,3,4,1>,std::allocator<Matrix<float,3,4,1> > > >
PUBLIC	?_Getal@?$_Vector_alloc@U?$_Vec_base_types@V?$Matrix@M$02$03$00@@V?$allocator@V?$Matrix@M$02$03$00@@@std@@@std@@@std@@QAEAAU?$_Wrap_alloc@V?$allocator@V?$Matrix@M$02$03$00@@@std@@@2@XZ ; std::_Vector_alloc<std::_Vec_base_types<Matrix<float,3,4,1>,std::allocator<Matrix<float,3,4,1> > > >::_Getal
PUBLIC	?_Myfirst@?$_Vector_alloc@U?$_Vec_base_types@V?$Matrix@M$02$03$00@@V?$allocator@V?$Matrix@M$02$03$00@@@std@@@std@@@std@@QAEAAPAV?$Matrix@M$02$03$00@@XZ ; std::_Vector_alloc<std::_Vec_base_types<Matrix<float,3,4,1>,std::allocator<Matrix<float,3,4,1> > > >::_Myfirst
PUBLIC	?_Mylast@?$_Vector_alloc@U?$_Vec_base_types@V?$Matrix@M$02$03$00@@V?$allocator@V?$Matrix@M$02$03$00@@@std@@@std@@@std@@QAEAAPAV?$Matrix@M$02$03$00@@XZ ; std::_Vector_alloc<std::_Vec_base_types<Matrix<float,3,4,1>,std::allocator<Matrix<float,3,4,1> > > >::_Mylast
PUBLIC	?count@?$duration@_JU?$ratio@$00$0DLJKMKAA@@std@@@chrono@std@@QBE_JXZ ; std::chrono::duration<__int64,std::ratio<1,1000000000> >::count
PUBLIC	??0?$time_point@Usteady_clock@chrono@std@@V?$duration@_JU?$ratio@$00$0DLJKMKAA@@std@@@23@@chrono@std@@QAE@XZ ; std::chrono::time_point<std::chrono::steady_clock,std::chrono::duration<__int64,std::ratio<1,1000000000> > >::time_point<std::chrono::steady_clock,std::chrono::duration<__int64,std::ratio<1,1000000000> > >
PUBLIC	??0?$linear_congruential_engine@I$0LMIP@$0A@$0HPPPPPPP@@std@@QAE@I@Z ; std::linear_congruential_engine<unsigned int,48271,0,2147483647>::linear_congruential_engine<unsigned int,48271,0,2147483647>
PUBLIC	??0?$Vector@M$03@@QAE@ABV0@@Z			; Vector<float,4>::Vector<float,4>
PUBLIC	??R?$Vector@M$03@@QBEMH@Z			; Vector<float,4>::operator()
PUBLIC	??X?$Vector@M$03@@QAEAAV0@ABV0@@Z		; Vector<float,4>::operator*=
PUBLIC	??R?$Matrix@M$02$02$00@@QBEMHH@Z		; Matrix<float,3,3,1>::operator()
PUBLIC	??R?$Matrix@M$03$03$00@@QBEMHH@Z		; Matrix<float,4,4,1>::operator()
PUBLIC	?Width@?$MatrixData@M$03$03$00@@QBEHXZ		; MatrixData<float,4,4,1>::Width
PUBLIC	?Height@?$MatrixData@M$03$03$00@@QBEHXZ		; MatrixData<float,4,4,1>::Height
PUBLIC	?Width@?$MatrixData@M$02$02$00@@QBEHXZ		; MatrixData<float,3,3,1>::Width
PUBLIC	?Height@?$MatrixData@M$02$02$00@@QBEHXZ		; MatrixData<float,3,3,1>::Height
PUBLIC	??R?$Matrix@M$03$01$00@@QBEMHH@Z		; Matrix<float,4,2,1>::operator()
PUBLIC	?Width@?$MatrixData@M$03$01$00@@QBEHXZ		; MatrixData<float,4,2,1>::Width
PUBLIC	?Height@?$MatrixData@M$03$01$00@@QBEHXZ		; MatrixData<float,4,2,1>::Height
PUBLIC	??R?$Matrix@M$01$03$00@@QBEMHH@Z		; Matrix<float,2,4,1>::operator()
PUBLIC	?Width@?$MatrixData@M$01$03$00@@QBEHXZ		; MatrixData<float,2,4,1>::Width
PUBLIC	?Height@?$MatrixData@M$01$03$00@@QBEHXZ		; MatrixData<float,2,4,1>::Height
PUBLIC	??0?$Vector@M$01@@QAE@ABV0@@Z			; Vector<float,2>::Vector<float,2>
PUBLIC	?add@?$VectorSpec@M$01@@IAEXABV1@@Z		; VectorSpec<float,2>::add
PUBLIC	?mul@?$VectorSpec@M$01@@IAEXM@Z			; VectorSpec<float,2>::mul
PUBLIC	??R?$Matrix@M$01$01$00@@QAEAAMHH@Z		; Matrix<float,2,2,1>::operator()
PUBLIC	??R?$Matrix@M$01$01$00@@QBEMHH@Z		; Matrix<float,2,2,1>::operator()
PUBLIC	?Width@?$MatrixData@M$01$01$00@@QBEHXZ		; MatrixData<float,2,2,1>::Width
PUBLIC	?Height@?$MatrixData@M$01$01$00@@QBEHXZ		; MatrixData<float,2,2,1>::Height
PUBLIC	??0?$vector@V?$Matrix@M$01$01$00@@V?$allocator@V?$Matrix@M$01$01$00@@@std@@@std@@QAE@I@Z ; std::vector<Matrix<float,2,2,1>,std::allocator<Matrix<float,2,2,1> > >::vector<Matrix<float,2,2,1>,std::allocator<Matrix<float,2,2,1> > >
PUBLIC	??1?$vector@V?$Matrix@M$01$01$00@@V?$allocator@V?$Matrix@M$01$01$00@@@std@@@std@@QAE@XZ ; std::vector<Matrix<float,2,2,1>,std::allocator<Matrix<float,2,2,1> > >::~vector<Matrix<float,2,2,1>,std::allocator<Matrix<float,2,2,1> > >
PUBLIC	??A?$vector@V?$Matrix@M$01$01$00@@V?$allocator@V?$Matrix@M$01$01$00@@@std@@@std@@QAEAAV?$Matrix@M$01$01$00@@I@Z ; std::vector<Matrix<float,2,2,1>,std::allocator<Matrix<float,2,2,1> > >::operator[]
PUBLIC	??0?$uniform_real_distribution@M@std@@QAE@MM@Z	; std::uniform_real_distribution<float>::uniform_real_distribution<float>
PUBLIC	??0?$vector@V?$Matrix@M$02$02$00@@V?$allocator@V?$Matrix@M$02$02$00@@@std@@@std@@QAE@I@Z ; std::vector<Matrix<float,3,3,1>,std::allocator<Matrix<float,3,3,1> > >::vector<Matrix<float,3,3,1>,std::allocator<Matrix<float,3,3,1> > >
PUBLIC	??1?$vector@V?$Matrix@M$02$02$00@@V?$allocator@V?$Matrix@M$02$02$00@@@std@@@std@@QAE@XZ ; std::vector<Matrix<float,3,3,1>,std::allocator<Matrix<float,3,3,1> > >::~vector<Matrix<float,3,3,1>,std::allocator<Matrix<float,3,3,1> > >
PUBLIC	??A?$vector@V?$Matrix@M$02$02$00@@V?$allocator@V?$Matrix@M$02$02$00@@@std@@@std@@QAEAAV?$Matrix@M$02$02$00@@I@Z ; std::vector<Matrix<float,3,3,1>,std::allocator<Matrix<float,3,3,1> > >::operator[]
PUBLIC	??0?$vector@V?$Matrix@M$03$03$00@@V?$allocator@V?$Matrix@M$03$03$00@@@std@@@std@@QAE@I@Z ; std::vector<Matrix<float,4,4,1>,std::allocator<Matrix<float,4,4,1> > >::vector<Matrix<float,4,4,1>,std::allocator<Matrix<float,4,4,1> > >
PUBLIC	??1?$vector@V?$Matrix@M$03$03$00@@V?$allocator@V?$Matrix@M$03$03$00@@@std@@@std@@QAE@XZ ; std::vector<Matrix<float,4,4,1>,std::allocator<Matrix<float,4,4,1> > >::~vector<Matrix<float,4,4,1>,std::allocator<Matrix<float,4,4,1> > >
PUBLIC	??A?$vector@V?$Matrix@M$03$03$00@@V?$allocator@V?$Matrix@M$03$03$00@@@std@@@std@@QAEAAV?$Matrix@M$03$03$00@@I@Z ; std::vector<Matrix<float,4,4,1>,std::allocator<Matrix<float,4,4,1> > >::operator[]
PUBLIC	??0?$vector@V?$Matrix@M$03$01$00@@V?$allocator@V?$Matrix@M$03$01$00@@@std@@@std@@QAE@I@Z ; std::vector<Matrix<float,4,2,1>,std::allocator<Matrix<float,4,2,1> > >::vector<Matrix<float,4,2,1>,std::allocator<Matrix<float,4,2,1> > >
PUBLIC	??1?$vector@V?$Matrix@M$03$01$00@@V?$allocator@V?$Matrix@M$03$01$00@@@std@@@std@@QAE@XZ ; std::vector<Matrix<float,4,2,1>,std::allocator<Matrix<float,4,2,1> > >::~vector<Matrix<float,4,2,1>,std::allocator<Matrix<float,4,2,1> > >
PUBLIC	??A?$vector@V?$Matrix@M$03$01$00@@V?$allocator@V?$Matrix@M$03$01$00@@@std@@@std@@QAEAAV?$Matrix@M$03$01$00@@I@Z ; std::vector<Matrix<float,4,2,1>,std::allocator<Matrix<float,4,2,1> > >::operator[]
PUBLIC	??0?$vector@V?$Matrix@M$01$03$00@@V?$allocator@V?$Matrix@M$01$03$00@@@std@@@std@@QAE@I@Z ; std::vector<Matrix<float,2,4,1>,std::allocator<Matrix<float,2,4,1> > >::vector<Matrix<float,2,4,1>,std::allocator<Matrix<float,2,4,1> > >
PUBLIC	??1?$vector@V?$Matrix@M$01$03$00@@V?$allocator@V?$Matrix@M$01$03$00@@@std@@@std@@QAE@XZ ; std::vector<Matrix<float,2,4,1>,std::allocator<Matrix<float,2,4,1> > >::~vector<Matrix<float,2,4,1>,std::allocator<Matrix<float,2,4,1> > >
PUBLIC	??A?$vector@V?$Matrix@M$01$03$00@@V?$allocator@V?$Matrix@M$01$03$00@@@std@@@std@@QAEAAV?$Matrix@M$01$03$00@@I@Z ; std::vector<Matrix<float,2,4,1>,std::allocator<Matrix<float,2,4,1> > >::operator[]
PUBLIC	??R?$Matrix@M$03$02$00@@QAEAAMHH@Z		; Matrix<float,4,3,1>::operator()
PUBLIC	??R?$Matrix@M$02$03$00@@QAEAAMHH@Z		; Matrix<float,3,4,1>::operator()
PUBLIC	??0?$vector@V?$Matrix@M$03$02$00@@V?$allocator@V?$Matrix@M$03$02$00@@@std@@@std@@QAE@I@Z ; std::vector<Matrix<float,4,3,1>,std::allocator<Matrix<float,4,3,1> > >::vector<Matrix<float,4,3,1>,std::allocator<Matrix<float,4,3,1> > >
PUBLIC	??1?$vector@V?$Matrix@M$03$02$00@@V?$allocator@V?$Matrix@M$03$02$00@@@std@@@std@@QAE@XZ ; std::vector<Matrix<float,4,3,1>,std::allocator<Matrix<float,4,3,1> > >::~vector<Matrix<float,4,3,1>,std::allocator<Matrix<float,4,3,1> > >
PUBLIC	??A?$vector@V?$Matrix@M$03$02$00@@V?$allocator@V?$Matrix@M$03$02$00@@@std@@@std@@QAEAAV?$Matrix@M$03$02$00@@I@Z ; std::vector<Matrix<float,4,3,1>,std::allocator<Matrix<float,4,3,1> > >::operator[]
PUBLIC	??0?$vector@V?$Matrix@M$02$03$00@@V?$allocator@V?$Matrix@M$02$03$00@@@std@@@std@@QAE@I@Z ; std::vector<Matrix<float,3,4,1>,std::allocator<Matrix<float,3,4,1> > >::vector<Matrix<float,3,4,1>,std::allocator<Matrix<float,3,4,1> > >
PUBLIC	??1?$vector@V?$Matrix@M$02$03$00@@V?$allocator@V?$Matrix@M$02$03$00@@@std@@@std@@QAE@XZ ; std::vector<Matrix<float,3,4,1>,std::allocator<Matrix<float,3,4,1> > >::~vector<Matrix<float,3,4,1>,std::allocator<Matrix<float,3,4,1> > >
PUBLIC	??A?$vector@V?$Matrix@M$02$03$00@@V?$allocator@V?$Matrix@M$02$03$00@@@std@@@std@@QAEAAV?$Matrix@M$02$03$00@@I@Z ; std::vector<Matrix<float,3,4,1>,std::allocator<Matrix<float,3,4,1> > >::operator[]
PUBLIC	??__G@YGXPAX0IIP6EPAX00@Z@Z			; `vector copy constructor iterator'
PUBLIC	??0?$MatrixData@M$01$01$00@@QAE@$$QAV0@@Z	; MatrixData<float,2,2,1>::MatrixData<float,2,2,1>
PUBLIC	??0?$MatrixOps@M$01$01$00$0A@@@QAE@$$QAV0@@Z	; MatrixOps<float,2,2,1,0>::MatrixOps<float,2,2,1,0>
PUBLIC	??0?$MatrixOps@M$01$01$00$00@@QAE@$$QAV0@@Z	; MatrixOps<float,2,2,1,1>::MatrixOps<float,2,2,1,1>
PUBLIC	??0?$Matrix@M$01$01$00@@QAE@$$QAV0@@Z		; Matrix<float,2,2,1>::Matrix<float,2,2,1>
PUBLIC	??0?$MatrixData@M$01$01$00@@QAE@XZ		; MatrixData<float,2,2,1>::MatrixData<float,2,2,1>
PUBLIC	??0?$MatrixOps@M$01$01$00$0A@@@QAE@XZ		; MatrixOps<float,2,2,1,0>::MatrixOps<float,2,2,1,0>
PUBLIC	??0?$MatrixOps@M$01$01$00$00@@QAE@XZ		; MatrixOps<float,2,2,1,1>::MatrixOps<float,2,2,1,1>
PUBLIC	??0?$Matrix@M$01$01$00@@QAE@XZ			; Matrix<float,2,2,1>::Matrix<float,2,2,1>
PUBLIC	??0?$MatrixData@M$02$02$00@@QAE@$$QAV0@@Z	; MatrixData<float,3,3,1>::MatrixData<float,3,3,1>
PUBLIC	??0?$MatrixOps@M$02$02$00$0A@@@QAE@$$QAV0@@Z	; MatrixOps<float,3,3,1,0>::MatrixOps<float,3,3,1,0>
PUBLIC	??0?$MatrixOps@M$02$02$00$00@@QAE@$$QAV0@@Z	; MatrixOps<float,3,3,1,1>::MatrixOps<float,3,3,1,1>
PUBLIC	??0?$Matrix@M$02$02$00@@QAE@$$QAV0@@Z		; Matrix<float,3,3,1>::Matrix<float,3,3,1>
PUBLIC	??0?$MatrixData@M$03$03$00@@QAE@$$QAV0@@Z	; MatrixData<float,4,4,1>::MatrixData<float,4,4,1>
PUBLIC	??0?$MatrixOps@M$03$03$00$0A@@@QAE@$$QAV0@@Z	; MatrixOps<float,4,4,1,0>::MatrixOps<float,4,4,1,0>
PUBLIC	??0?$MatrixOps@M$03$03$00$00@@QAE@$$QAV0@@Z	; MatrixOps<float,4,4,1,1>::MatrixOps<float,4,4,1,1>
PUBLIC	??0?$Matrix@M$03$03$00@@QAE@$$QAV0@@Z		; Matrix<float,4,4,1>::Matrix<float,4,4,1>
PUBLIC	??$MatMulSpeedTest@M$02$03$03$02@@YANXZ		; MatMulSpeedTest<float,3,4,4,3>
PUBLIC	??$MatMulSpeedTest@M$03$02$02$03@@YANXZ		; MatMulSpeedTest<float,4,3,3,4>
PUBLIC	??$MatMulSpeedTest@M$01$03$03$01@@YANXZ		; MatMulSpeedTest<float,2,4,4,2>
PUBLIC	??$MatMulSpeedTest@M$03$01$01$03@@YANXZ		; MatMulSpeedTest<float,4,2,2,4>
PUBLIC	??$MatMulSpeedTest@M$03$03$03$03@@YANXZ		; MatMulSpeedTest<float,4,4,4,4>
PUBLIC	??$MatMulSpeedTest@M$02$02$02$02@@YANXZ		; MatMulSpeedTest<float,3,3,3,3>
PUBLIC	??$MatMulSpeedTest@M$01$01$01$01@@YANXZ		; MatMulSpeedTest<float,2,2,2,2>
PUBLIC	??$?DMM$01$03$03$00$00MX@@YA?AV?$Matrix@M$03$03$00@@ABV?$Matrix@M$01$03$00@@ABV?$Matrix@M$03$01$00@@@Z ; operator*<float,float,2,4,4,1,1,float,void>
PUBLIC	??$?6M$01$01$00@@YAAAV?$basic_ostream@DU?$char_traits@D@std@@@std@@AAV01@ABV?$Matrix@M$01$01$00@@@Z ; operator<<<float,2,2,1>
PUBLIC	??$?DMM$03$01$01$00$00MX@@YA?AV?$Matrix@M$01$01$00@@ABV?$Matrix@M$03$01$00@@ABV?$Matrix@M$01$03$00@@@Z ; operator*<float,float,4,2,2,1,1,float,void>
PUBLIC	??$?6M$01$03$00@@YAAAV?$basic_ostream@DU?$char_traits@D@std@@@std@@AAV01@ABV?$Matrix@M$01$03$00@@@Z ; operator<<<float,2,4,1>
PUBLIC	??$?6M$03$01$00@@YAAAV?$basic_ostream@DU?$char_traits@D@std@@@std@@AAV01@ABV?$Matrix@M$03$01$00@@@Z ; operator<<<float,4,2,1>
PUBLIC	??$?6M$02$02$00@@YAAAV?$basic_ostream@DU?$char_traits@D@std@@@std@@AAV01@ABV?$Matrix@M$02$02$00@@@Z ; operator<<<float,3,3,1>
PUBLIC	??$?DMM$02$02$02$00$00MX@@YA?AV?$Matrix@M$02$02$00@@ABV0@0@Z ; operator*<float,float,3,3,3,1,1,float,void>
PUBLIC	??$?HMM$03$03$00$00M@@YA?AV?$Matrix@M$03$03$00@@ABV0@0@Z ; operator+<float,float,4,4,1,1,float>
PUBLIC	??$?6M$03$03$00@@YAAAV?$basic_ostream@DU?$char_traits@D@std@@@std@@AAV01@ABV?$Matrix@M$03$03$00@@@Z ; operator<<<float,4,4,1>
PUBLIC	??$?DMM$03$03$03$00$00MX@@YA?AV?$Matrix@M$03$03$00@@ABV0@0@Z ; operator*<float,float,4,4,4,1,1,float,void>
PUBLIC	??$Set@MV?$Vector@M$02@@$0A@@?$Vector@M$03@@QAEAAV0@ABMABV?$Vector@M$02@@@Z ; Vector<float,4>::Set<float,Vector<float,3>,0>
PUBLIC	??$Set@HHH$0A@@?$Vector@M$02@@QAEAAV0@HHH@Z	; Vector<float,3>::Set<int,int,int,0>
PUBLIC	??$?0V?$Vector@M$02@@M$0A@@?$Vector@M$03@@QAE@ABV?$Vector@M$02@@ABM@Z ; Vector<float,4>::Vector<float,4><Vector<float,3>,float,0>
PUBLIC	??$?6M$03@@YAAAV?$basic_ostream@DU?$char_traits@D@std@@@std@@AAV01@ABV?$Vector@M$03@@@Z ; operator<<<float,4>
PUBLIC	??$Set@V?$Vector@M$03@@V1@$0A@@?$Vector@M$07@@QAEAAV0@ABV?$Vector@M$03@@0@Z ; Vector<float,8>::Set<Vector<float,4>,Vector<float,4>,0>
PUBLIC	??$Set@HHHHHHHH$0A@@?$Vector@M$07@@QAEAAV0@HHHHHHHH@Z ; Vector<float,8>::Set<int,int,int,int,int,int,int,int,0>
PUBLIC	??$?DM$03@@YA?AV?$Vector@M$03@@ABV0@0@Z		; operator*<float,4>
PUBLIC	??$?0_JX@?$duration@_JU?$ratio@$00$0DLJKMKAA@@std@@@chrono@std@@QAE@AB_J@Z ; std::chrono::duration<__int64,std::ratio<1,1000000000> >::duration<__int64,std::ratio<1,1000000000> ><__int64,void>
PUBLIC	??$endl@DU?$char_traits@D@std@@@std@@YAAAV?$basic_ostream@DU?$char_traits@D@std@@@0@AAV10@@Z ; std::endl<char,std::char_traits<char> >
PUBLIC	??$?6U?$char_traits@D@std@@@std@@YAAAV?$basic_ostream@DU?$char_traits@D@std@@@0@AAV10@PBD@Z ; std::operator<<<std::char_traits<char> >
PUBLIC	??0_Sentry_base@?$basic_ostream@DU?$char_traits@D@std@@@std@@QAE@AAV12@@Z ; std::basic_ostream<char,std::char_traits<char> >::_Sentry_base::_Sentry_base
PUBLIC	??1_Sentry_base@?$basic_ostream@DU?$char_traits@D@std@@@std@@QAE@XZ ; std::basic_ostream<char,std::char_traits<char> >::_Sentry_base::~_Sentry_base
PUBLIC	??A?$Vector@M$02@@QAEAAMH@Z			; Vector<float,3>::operator[]
PUBLIC	??A?$Vector@M$03@@QAEAAMH@Z			; Vector<float,4>::operator[]
PUBLIC	??A?$Vector@M$01@@QAEAAMH@Z			; Vector<float,2>::operator[]
PUBLIC	??0sentry@?$basic_ostream@DU?$char_traits@D@std@@@std@@QAE@AAV12@@Z ; std::basic_ostream<char,std::char_traits<char> >::sentry::sentry
PUBLIC	??1sentry@?$basic_ostream@DU?$char_traits@D@std@@@std@@QAE@XZ ; std::basic_ostream<char,std::char_traits<char> >::sentry::~sentry
PUBLIC	??Bsentry@?$basic_ostream@DU?$char_traits@D@std@@@std@@QBE_NXZ ; std::basic_ostream<char,std::char_traits<char> >::sentry::operator bool
PUBLIC	?Assign@?$Vector@M$02@@IAEXABV1@@Z		; Vector<float,3>::Assign
PUBLIC	?GetElement@?$MatrixData@M$03$03$00@@QAEAAMHH@Z	; MatrixData<float,4,4,1>::GetElement
PUBLIC	?GetElement@?$MatrixData@M$02$02$00@@QAEAAMHH@Z	; MatrixData<float,3,3,1>::GetElement
PUBLIC	?GetElement@?$MatrixData@M$03$01$00@@QAEAAMHH@Z	; MatrixData<float,4,2,1>::GetElement
PUBLIC	?GetElement@?$MatrixData@M$01$03$00@@QAEAAMHH@Z	; MatrixData<float,2,4,1>::GetElement
PUBLIC	??0?$Vector@M$02@@QAE@XZ			; Vector<float,3>::Vector<float,3>
PUBLIC	??0?$Vector@M$02@@QAE@M@Z			; Vector<float,3>::Vector<float,3>
PUBLIC	??0?$Vector@M$02@@QAE@ABV0@@Z			; Vector<float,3>::Vector<float,3>
PUBLIC	??0?$time_point@Usteady_clock@chrono@std@@V?$duration@_JU?$ratio@$00$0DLJKMKAA@@std@@@23@@chrono@std@@QAE@ABV?$duration@_JU?$ratio@$00$0DLJKMKAA@@std@@@12@@Z ; std::chrono::time_point<std::chrono::steady_clock,std::chrono::duration<__int64,std::ratio<1,1000000000> > >::time_point<std::chrono::steady_clock,std::chrono::duration<__int64,std::ratio<1,1000000000> > >
PUBLIC	??0?$Vector@M$03@@QAE@XZ			; Vector<float,4>::Vector<float,4>
PUBLIC	??0?$Vector@M$07@@QAE@XZ			; Vector<float,8>::Vector<float,8>
PUBLIC	??R?$Matrix@M$02$02$00@@QAEAAMHH@Z		; Matrix<float,3,3,1>::operator()
PUBLIC	??R?$Matrix@M$03$03$00@@QAEAAMHH@Z		; Matrix<float,4,4,1>::operator()
PUBLIC	??R?$Matrix@M$03$01$00@@QAEAAMHH@Z		; Matrix<float,4,2,1>::operator()
PUBLIC	??R?$Matrix@M$01$03$00@@QAEAAMHH@Z		; Matrix<float,2,4,1>::operator()
PUBLIC	??0?$Vector@M$01@@QAE@XZ			; Vector<float,2>::Vector<float,2>
PUBLIC	??_H@YGXPAXIIP6EPAX0@Z@Z			; `vector constructor iterator'
PUBLIC	??0?$MatrixData@M$01$03$00@@QAE@XZ		; MatrixData<float,2,4,1>::MatrixData<float,2,4,1>
PUBLIC	??0?$MatrixOps@M$01$03$00$0A@@@QAE@XZ		; MatrixOps<float,2,4,1,0>::MatrixOps<float,2,4,1,0>
PUBLIC	??0?$Matrix@M$01$03$00@@QAE@XZ			; Matrix<float,2,4,1>::Matrix<float,2,4,1>
PUBLIC	??0?$MatrixData@M$03$01$00@@QAE@XZ		; MatrixData<float,4,2,1>::MatrixData<float,4,2,1>
PUBLIC	??0?$MatrixOps@M$03$01$00$0A@@@QAE@XZ		; MatrixOps<float,4,2,1,0>::MatrixOps<float,4,2,1,0>
PUBLIC	??0?$Matrix@M$03$01$00@@QAE@XZ			; Matrix<float,4,2,1>::Matrix<float,4,2,1>
PUBLIC	??0?$MatrixData@M$02$02$00@@QAE@XZ		; MatrixData<float,3,3,1>::MatrixData<float,3,3,1>
PUBLIC	??0?$MatrixOps@M$02$02$00$0A@@@QAE@XZ		; MatrixOps<float,3,3,1,0>::MatrixOps<float,3,3,1,0>
PUBLIC	??0?$MatrixOps@M$02$02$00$00@@QAE@XZ		; MatrixOps<float,3,3,1,1>::MatrixOps<float,3,3,1,1>
PUBLIC	??0?$Matrix@M$02$02$00@@QAE@XZ			; Matrix<float,3,3,1>::Matrix<float,3,3,1>
PUBLIC	??0?$MatrixData@M$03$03$00@@QAE@XZ		; MatrixData<float,4,4,1>::MatrixData<float,4,4,1>
PUBLIC	??0?$MatrixOps@M$03$03$00$0A@@@QAE@XZ		; MatrixOps<float,4,4,1,0>::MatrixOps<float,4,4,1,0>
PUBLIC	??0?$MatrixOps@M$03$03$00$00@@QAE@XZ		; MatrixOps<float,4,4,1,1>::MatrixOps<float,4,4,1,1>
PUBLIC	??0?$Matrix@M$03$03$00@@QAE@XZ			; Matrix<float,4,4,1>::Matrix<float,4,4,1>
PUBLIC	??0?$Vector@M$03@@QAE@MMMM@Z			; Vector<float,4>::Vector<float,4>
PUBLIC	_main
PUBLIC	?now@steady_clock@chrono@std@@SA?AV?$time_point@Usteady_clock@chrono@std@@V?$duration@_JU?$ratio@$00$0DLJKMKAA@@std@@@23@@23@XZ ; std::chrono::steady_clock::now
PUBLIC	??0?$Vector@M$02@@QAE@MMM@Z			; Vector<float,3>::Vector<float,3>
PUBLIC	?Cross@?$VectorSpec@M$02@@SA?AV?$Vector@M$02@@ABV2@0@Z ; VectorSpec<float,3>::Cross
PUBLIC	?mul@?$VectorSpec@M$03@@IAEXM@Z			; VectorSpec<float,4>::mul
PUBLIC	?add@?$VectorSpec@M$03@@IAEXABV1@@Z		; VectorSpec<float,4>::add
PUBLIC	?mul@?$VectorSpec@M$03@@IAEXABV1@@Z		; VectorSpec<float,4>::mul
PUBLIC	?Assign@?$VectorSpec@M$03@@IAEXMMMM@Z		; VectorSpec<float,4>::Assign
PUBLIC	??0?$VectorSpec@M$03@@QAE@MMMM@Z		; VectorSpec<float,4>::VectorSpec<float,4>
PUBLIC	?mul@?$VectorSpec@M$02@@IAEXM@Z			; VectorSpec<float,3>::mul
PUBLIC	?add@?$VectorSpec@M$02@@IAEXABV1@@Z		; VectorSpec<float,3>::add
PUBLIC	?spread@?$VectorSpec@M$02@@IAEXM@Z		; VectorSpec<float,3>::spread
PUBLIC	?Assign@?$VectorSpec@M$02@@IAEXMMM@Z		; VectorSpec<float,3>::Assign
PUBLIC	??0?$VectorSpec@M$02@@QAE@MMM@Z			; VectorSpec<float,3>::VectorSpec<float,3>
PUBLIC	?set@Simd4f@@SA?AT1@MMMM@Z			; Simd4f::set
PUBLIC	?spread@Simd4f@@SA?AT1@M@Z			; Simd4f::spread
PUBLIC	?mul@Simd4f@@SA?AT1@ABT1@M@Z			; Simd4f::mul
PUBLIC	?add@Simd4f@@SA?AT1@ABT1@0@Z			; Simd4f::add
PUBLIC	?mul@Simd4f@@SA?AT1@ABT1@0@Z			; Simd4f::mul
PUBLIC	?_Deallocate@std@@YAXPAXII@Z			; std::_Deallocate
PUBLIC	?_Allocate@std@@YAPAXII_N@Z			; std::_Allocate
PUBLIC	?_Orphan_all@_Container_base0@std@@QAEXXZ	; std::_Container_base0::_Orphan_all
PUBLIC	?eof@?$char_traits@D@std@@SAHXZ			; std::char_traits<char>::eof
PUBLIC	?eq_int_type@?$char_traits@D@std@@SA_NABH0@Z	; std::char_traits<char>::eq_int_type
PUBLIC	?length@?$char_traits@D@std@@SAIPBD@Z		; std::char_traits<char>::length
PUBLIC	??3@YAXPAX0@Z					; operator delete
PUBLIC	??2@YAPAXIPAX@Z					; operator new
PUBLIC	__real@3e112e0be826d695
PUBLIC	__real@408f400000000000
PUBLIC	__xmm@0000000040400000400000003f800000
PUBLIC	__xmm@4040000040400000400000003f800000
PUBLIC	__xmm@40400000404000004080000040a00000
PUBLIC	__xmm@4080000040400000400000003f800000
PUBLIC	__xmm@408000004080000040a0000040c00000
PUBLIC	__xmm@40a0000040a0000040c0000040e00000
PUBLIC	__xmm@40c000004000000040a000003f800000
PUBLIC	__xmm@40c0000040c0000040a0000040800000
PUBLIC	__xmm@410000004080000040e0000040400000
PUBLIC	__xmm@4100000040e0000040c0000040a00000
PUBLIC	__xmm@41100000411000004100000040e00000
PUBLIC	__xmm@41a000004140000040c0000040000000
EXTRN	__CxxThrowException@8:PROC
EXTRN	___CxxFrameHandler3:PROC
EXTRN	__alldiv:PROC
EXTRN	__alldvrm:PROC
EXTRN	__allmul:PROC
EXTRN	__ltod3:PROC
EXTRN	_memset:PROC
EXTRN	___security_cookie:DWORD
EXTRN	__fltused:DWORD
;	COMDAT __xmm@41a000004140000040c0000040000000
CONST	SEGMENT
__xmm@41a000004140000040c0000040000000 DB 00H, 00H, 00H, '@', 00H, 00H, 0c0H
	DB	'@', 00H, 00H, '@A', 00H, 00H, 0a0H, 'A'
CONST	ENDS
;	COMDAT __xmm@41100000411000004100000040e00000
CONST	SEGMENT
__xmm@41100000411000004100000040e00000 DB 00H, 00H, 0e0H, '@', 00H, 00H, 00H
	DB	'A', 00H, 00H, 010H, 'A', 00H, 00H, 010H, 'A'
CONST	ENDS
;	COMDAT __xmm@4100000040e0000040c0000040a00000
CONST	SEGMENT
__xmm@4100000040e0000040c0000040a00000 DB 00H, 00H, 0a0H, '@', 00H, 00H, 0c0H
	DB	'@', 00H, 00H, 0e0H, '@', 00H, 00H, 00H, 'A'
CONST	ENDS
;	COMDAT __xmm@410000004080000040e0000040400000
CONST	SEGMENT
__xmm@410000004080000040e0000040400000 DB 00H, 00H, '@@', 00H, 00H, 0e0H, '@'
	DB	00H, 00H, 080H, '@', 00H, 00H, 00H, 'A'
CONST	ENDS
;	COMDAT __xmm@40c0000040c0000040a0000040800000
CONST	SEGMENT
__xmm@40c0000040c0000040a0000040800000 DB 00H, 00H, 080H, '@', 00H, 00H, 0a0H
	DB	'@', 00H, 00H, 0c0H, '@', 00H, 00H, 0c0H, '@'
CONST	ENDS
;	COMDAT __xmm@40c000004000000040a000003f800000
CONST	SEGMENT
__xmm@40c000004000000040a000003f800000 DB 00H, 00H, 080H, '?', 00H, 00H, 0a0H
	DB	'@', 00H, 00H, 00H, '@', 00H, 00H, 0c0H, '@'
CONST	ENDS
;	COMDAT __xmm@40a0000040a0000040c0000040e00000
CONST	SEGMENT
__xmm@40a0000040a0000040c0000040e00000 DB 00H, 00H, 0e0H, '@', 00H, 00H, 0c0H
	DB	'@', 00H, 00H, 0a0H, '@', 00H, 00H, 0a0H, '@'
CONST	ENDS
;	COMDAT __xmm@408000004080000040a0000040c00000
CONST	SEGMENT
__xmm@408000004080000040a0000040c00000 DB 00H, 00H, 0c0H, '@', 00H, 00H, 0a0H
	DB	'@', 00H, 00H, 080H, '@', 00H, 00H, 080H, '@'
CONST	ENDS
;	COMDAT __xmm@4080000040400000400000003f800000
CONST	SEGMENT
__xmm@4080000040400000400000003f800000 DB 00H, 00H, 080H, '?', 00H, 00H, 00H
	DB	'@', 00H, 00H, '@@', 00H, 00H, 080H, '@'
CONST	ENDS
;	COMDAT __xmm@40400000404000004080000040a00000
CONST	SEGMENT
__xmm@40400000404000004080000040a00000 DB 00H, 00H, 0a0H, '@', 00H, 00H, 080H
	DB	'@', 00H, 00H, '@@', 00H, 00H, '@@'
CONST	ENDS
;	COMDAT __xmm@4040000040400000400000003f800000
CONST	SEGMENT
__xmm@4040000040400000400000003f800000 DB 00H, 00H, 080H, '?', 00H, 00H, 00H
	DB	'@', 00H, 00H, '@@', 00H, 00H, '@@'
CONST	ENDS
;	COMDAT __xmm@0000000040400000400000003f800000
CONST	SEGMENT
__xmm@0000000040400000400000003f800000 DB 00H, 00H, 080H, '?', 00H, 00H, 00H
	DB	'@', 00H, 00H, '@@', 00H, 00H, 00H, 00H
CONST	ENDS
;	COMDAT __real@408f400000000000
CONST	SEGMENT
__real@408f400000000000 DQ 0408f400000000000r	; 1000
CONST	ENDS
;	COMDAT __real@3e112e0be826d695
CONST	SEGMENT
__real@3e112e0be826d695 DQ 03e112e0be826d695r	; 1e-09
CONST	ENDS
;	COMDAT xdata$x
xdata$x	SEGMENT
__ehfuncinfo$??1sentry@?$basic_ostream@DU?$char_traits@D@std@@@std@@QAE@XZ DQ 00000000119930522r ; 2.33398e-314
	DD	FLAT:__unwindtable$??1sentry@?$basic_ostream@DU?$char_traits@D@std@@@std@@QAE@XZ
	DQ	00000000000000000r		; 0
	DQ	00000000000000000r		; 0
	DQ	00000000500000000r		; 1.061e-313
__unwindtable$??1sentry@?$basic_ostream@DU?$char_traits@D@std@@@std@@QAE@XZ DD 0ffffffffH
	DD	FLAT:__unwindfunclet$??1sentry@?$basic_ostream@DU?$char_traits@D@std@@@std@@QAE@XZ$0
xdata$x	ENDS
;	COMDAT xdata$x
xdata$x	SEGMENT
__ehfuncinfo$??0sentry@?$basic_ostream@DU?$char_traits@D@std@@@std@@QAE@AAV12@@Z DQ 00000000119930522r ; 2.33398e-314
	DD	FLAT:__unwindtable$??0sentry@?$basic_ostream@DU?$char_traits@D@std@@@std@@QAE@AAV12@@Z
	DQ	00000000000000000r		; 0
	DQ	00000000000000000r		; 0
	DQ	00000000100000000r		; 2.122e-314
__unwindtable$??0sentry@?$basic_ostream@DU?$char_traits@D@std@@@std@@QAE@AAV12@@Z DD 0ffffffffH
	DD	FLAT:__unwindfunclet$??0sentry@?$basic_ostream@DU?$char_traits@D@std@@@std@@QAE@AAV12@@Z$0
xdata$x	ENDS
;	COMDAT xdata$x
xdata$x	SEGMENT
__ehfuncinfo$??1_Sentry_base@?$basic_ostream@DU?$char_traits@D@std@@@std@@QAE@XZ DQ 00000000019930522r ; 2.11987e-315
	DQ	00000000000000000r		; 0
	DQ	00000000000000000r		; 0
	DQ	00000000000000000r		; 0
	DD	05H
xdata$x	ENDS
;	COMDAT xdata$x
xdata$x	SEGMENT
__ehfuncinfo$??$?6U?$char_traits@D@std@@@std@@YAAAV?$basic_ostream@DU?$char_traits@D@std@@@0@AAV10@PBD@Z DQ 00000000619930522r ; 1.2944e-313
	DD	FLAT:__unwindtable$??$?6U?$char_traits@D@std@@@std@@YAAAV?$basic_ostream@DU?$char_traits@D@std@@@0@AAV10@PBD@Z
	DD	01H
	DD	FLAT:__tryblocktable$??$?6U?$char_traits@D@std@@@std@@YAAAV?$basic_ostream@DU?$char_traits@D@std@@@0@AAV10@PBD@Z
	DQ	00000000000000000r		; 0
	DQ	00000000100000000r		; 2.122e-314
__unwindtable$??$?6U?$char_traits@D@std@@@std@@YAAAV?$basic_ostream@DU?$char_traits@D@std@@@0@AAV10@PBD@Z DD 0ffffffffH
	DD	FLAT:__unwindfunclet$??$?6U?$char_traits@D@std@@@std@@YAAAV?$basic_ostream@DU?$char_traits@D@std@@@0@AAV10@PBD@Z$3
	DD	0ffffffffH
	DD	FLAT:__unwindfunclet$??$?6U?$char_traits@D@std@@@std@@YAAAV?$basic_ostream@DU?$char_traits@D@std@@@0@AAV10@PBD@Z$2
	DQ	00000000000000001r		; 4.94066e-324
	DQ	00000000000000001r		; 4.94066e-324
	DD	0ffffffffH
	DD	FLAT:__unwindfunclet$??$?6U?$char_traits@D@std@@@std@@YAAAV?$basic_ostream@DU?$char_traits@D@std@@@0@AAV10@PBD@Z$8
	DD	04H
	DD	FLAT:__unwindfunclet$??$?6U?$char_traits@D@std@@@std@@YAAAV?$basic_ostream@DU?$char_traits@D@std@@@0@AAV10@PBD@Z$9
__tryblocktable$??$?6U?$char_traits@D@std@@@std@@YAAAV?$basic_ostream@DU?$char_traits@D@std@@@0@AAV10@PBD@Z DQ 00000000200000002r ; 4.24399e-314
	DQ	00000000100000003r		; 2.122e-314
	DD	FLAT:__catchsym$??$?6U?$char_traits@D@std@@@std@@YAAAV?$basic_ostream@DU?$char_traits@D@std@@@0@AAV10@PBD@Z$10
__catchsym$??$?6U?$char_traits@D@std@@@std@@YAAAV?$basic_ostream@DU?$char_traits@D@std@@@0@AAV10@PBD@Z$10 DQ 00000000000000040r ; 3.16202e-322
	DD	00H
	DD	FLAT:__catch$??$?6U?$char_traits@D@std@@@std@@YAAAV?$basic_ostream@DU?$char_traits@D@std@@@0@AAV10@PBD@Z$0
xdata$x	ENDS
;	COMDAT xdata$x
xdata$x	SEGMENT
__ehfuncinfo$??$MatMulSpeedTest@M$01$01$01$01@@YANXZ DQ 00000000219930522r ; 4.45598e-314
	DD	FLAT:__unwindtable$??$MatMulSpeedTest@M$01$01$01$01@@YANXZ
	DQ	00000000000000000r		; 0
	DQ	00000000000000000r		; 0
	DQ	00000000100000000r		; 2.122e-314
__unwindtable$??$MatMulSpeedTest@M$01$01$01$01@@YANXZ DD 0ffffffffH
	DD	FLAT:__unwindfunclet$??$MatMulSpeedTest@M$01$01$01$01@@YANXZ$0
	DD	00H
	DD	FLAT:__unwindfunclet$??$MatMulSpeedTest@M$01$01$01$01@@YANXZ$1
xdata$x	ENDS
;	COMDAT xdata$x
xdata$x	SEGMENT
__ehfuncinfo$??$MatMulSpeedTest@M$02$02$02$02@@YANXZ DQ 00000000219930522r ; 4.45598e-314
	DD	FLAT:__unwindtable$??$MatMulSpeedTest@M$02$02$02$02@@YANXZ
	DQ	00000000000000000r		; 0
	DQ	00000000000000000r		; 0
	DQ	00000000100000000r		; 2.122e-314
__unwindtable$??$MatMulSpeedTest@M$02$02$02$02@@YANXZ DD 0ffffffffH
	DD	FLAT:__unwindfunclet$??$MatMulSpeedTest@M$02$02$02$02@@YANXZ$0
	DD	00H
	DD	FLAT:__unwindfunclet$??$MatMulSpeedTest@M$02$02$02$02@@YANXZ$1
xdata$x	ENDS
;	COMDAT xdata$x
xdata$x	SEGMENT
__ehfuncinfo$??$MatMulSpeedTest@M$03$03$03$03@@YANXZ DQ 00000000219930522r ; 4.45598e-314
	DD	FLAT:__unwindtable$??$MatMulSpeedTest@M$03$03$03$03@@YANXZ
	DQ	00000000000000000r		; 0
	DQ	00000000000000000r		; 0
	DQ	00000000100000000r		; 2.122e-314
__unwindtable$??$MatMulSpeedTest@M$03$03$03$03@@YANXZ DD 0ffffffffH
	DD	FLAT:__unwindfunclet$??$MatMulSpeedTest@M$03$03$03$03@@YANXZ$0
	DD	00H
	DD	FLAT:__unwindfunclet$??$MatMulSpeedTest@M$03$03$03$03@@YANXZ$1
xdata$x	ENDS
;	COMDAT xdata$x
xdata$x	SEGMENT
__ehfuncinfo$??$MatMulSpeedTest@M$03$01$01$03@@YANXZ DQ 00000000219930522r ; 4.45598e-314
	DD	FLAT:__unwindtable$??$MatMulSpeedTest@M$03$01$01$03@@YANXZ
	DQ	00000000000000000r		; 0
	DQ	00000000000000000r		; 0
	DQ	00000000100000000r		; 2.122e-314
__unwindtable$??$MatMulSpeedTest@M$03$01$01$03@@YANXZ DD 0ffffffffH
	DD	FLAT:__unwindfunclet$??$MatMulSpeedTest@M$03$01$01$03@@YANXZ$0
	DD	00H
	DD	FLAT:__unwindfunclet$??$MatMulSpeedTest@M$03$01$01$03@@YANXZ$1
xdata$x	ENDS
;	COMDAT xdata$x
xdata$x	SEGMENT
__ehfuncinfo$??$MatMulSpeedTest@M$01$03$03$01@@YANXZ DQ 00000000219930522r ; 4.45598e-314
	DD	FLAT:__unwindtable$??$MatMulSpeedTest@M$01$03$03$01@@YANXZ
	DQ	00000000000000000r		; 0
	DQ	00000000000000000r		; 0
	DQ	00000000100000000r		; 2.122e-314
__unwindtable$??$MatMulSpeedTest@M$01$03$03$01@@YANXZ DD 0ffffffffH
	DD	FLAT:__unwindfunclet$??$MatMulSpeedTest@M$01$03$03$01@@YANXZ$0
	DD	00H
	DD	FLAT:__unwindfunclet$??$MatMulSpeedTest@M$01$03$03$01@@YANXZ$1
xdata$x	ENDS
;	COMDAT xdata$x
xdata$x	SEGMENT
__ehfuncinfo$??$MatMulSpeedTest@M$03$02$02$03@@YANXZ DQ 00000000219930522r ; 4.45598e-314
	DD	FLAT:__unwindtable$??$MatMulSpeedTest@M$03$02$02$03@@YANXZ
	DQ	00000000000000000r		; 0
	DQ	00000000000000000r		; 0
	DQ	00000000100000000r		; 2.122e-314
__unwindtable$??$MatMulSpeedTest@M$03$02$02$03@@YANXZ DD 0ffffffffH
	DD	FLAT:__unwindfunclet$??$MatMulSpeedTest@M$03$02$02$03@@YANXZ$0
	DD	00H
	DD	FLAT:__unwindfunclet$??$MatMulSpeedTest@M$03$02$02$03@@YANXZ$1
xdata$x	ENDS
;	COMDAT xdata$x
xdata$x	SEGMENT
__ehfuncinfo$??$MatMulSpeedTest@M$02$03$03$02@@YANXZ DQ 00000000219930522r ; 4.45598e-314
	DD	FLAT:__unwindtable$??$MatMulSpeedTest@M$02$03$03$02@@YANXZ
	DQ	00000000000000000r		; 0
	DQ	00000000000000000r		; 0
	DQ	00000000100000000r		; 2.122e-314
__unwindtable$??$MatMulSpeedTest@M$02$03$03$02@@YANXZ DD 0ffffffffH
	DD	FLAT:__unwindfunclet$??$MatMulSpeedTest@M$02$03$03$02@@YANXZ$0
	DD	00H
	DD	FLAT:__unwindfunclet$??$MatMulSpeedTest@M$02$03$03$02@@YANXZ$1
xdata$x	ENDS
;	COMDAT xdata$x
xdata$x	SEGMENT
__ehfuncinfo$??0?$vector@V?$Matrix@M$02$03$00@@V?$allocator@V?$Matrix@M$02$03$00@@@std@@@std@@QAE@I@Z DQ 00000000219930522r ; 4.45598e-314
	DD	FLAT:__unwindtable$??0?$vector@V?$Matrix@M$02$03$00@@V?$allocator@V?$Matrix@M$02$03$00@@@std@@@std@@QAE@I@Z
	DD	01H
	DD	FLAT:__tryblocktable$??0?$vector@V?$Matrix@M$02$03$00@@V?$allocator@V?$Matrix@M$02$03$00@@@std@@@std@@QAE@I@Z
	DQ	00000000000000000r		; 0
	DQ	00000000100000000r		; 2.122e-314
__unwindtable$??0?$vector@V?$Matrix@M$02$03$00@@V?$allocator@V?$Matrix@M$02$03$00@@@std@@@std@@QAE@I@Z DQ 000000000ffffffffr ; 2.122e-314
	DQ	000000000ffffffffr		; 2.122e-314
__tryblocktable$??0?$vector@V?$Matrix@M$02$03$00@@V?$allocator@V?$Matrix@M$02$03$00@@@std@@@std@@QAE@I@Z DQ 00000000000000000r ; 0
	DQ	00000000100000001r		; 2.122e-314
	DD	FLAT:__catchsym$??0?$vector@V?$Matrix@M$02$03$00@@V?$allocator@V?$Matrix@M$02$03$00@@@std@@@std@@QAE@I@Z$42
__catchsym$??0?$vector@V?$Matrix@M$02$03$00@@V?$allocator@V?$Matrix@M$02$03$00@@@std@@@std@@QAE@I@Z$42 DQ 00000000000000040r ; 3.16202e-322
	DD	00H
	DD	FLAT:__catch$??0?$vector@V?$Matrix@M$02$03$00@@V?$allocator@V?$Matrix@M$02$03$00@@@std@@@std@@QAE@I@Z$0
xdata$x	ENDS
;	COMDAT xdata$x
xdata$x	SEGMENT
__ehfuncinfo$??0?$vector@V?$Matrix@M$03$02$00@@V?$allocator@V?$Matrix@M$03$02$00@@@std@@@std@@QAE@I@Z DQ 00000000219930522r ; 4.45598e-314
	DD	FLAT:__unwindtable$??0?$vector@V?$Matrix@M$03$02$00@@V?$allocator@V?$Matrix@M$03$02$00@@@std@@@std@@QAE@I@Z
	DD	01H
	DD	FLAT:__tryblocktable$??0?$vector@V?$Matrix@M$03$02$00@@V?$allocator@V?$Matrix@M$03$02$00@@@std@@@std@@QAE@I@Z
	DQ	00000000000000000r		; 0
	DQ	00000000100000000r		; 2.122e-314
__unwindtable$??0?$vector@V?$Matrix@M$03$02$00@@V?$allocator@V?$Matrix@M$03$02$00@@@std@@@std@@QAE@I@Z DQ 000000000ffffffffr ; 2.122e-314
	DQ	000000000ffffffffr		; 2.122e-314
__tryblocktable$??0?$vector@V?$Matrix@M$03$02$00@@V?$allocator@V?$Matrix@M$03$02$00@@@std@@@std@@QAE@I@Z DQ 00000000000000000r ; 0
	DQ	00000000100000001r		; 2.122e-314
	DD	FLAT:__catchsym$??0?$vector@V?$Matrix@M$03$02$00@@V?$allocator@V?$Matrix@M$03$02$00@@@std@@@std@@QAE@I@Z$42
__catchsym$??0?$vector@V?$Matrix@M$03$02$00@@V?$allocator@V?$Matrix@M$03$02$00@@@std@@@std@@QAE@I@Z$42 DQ 00000000000000040r ; 3.16202e-322
	DD	00H
	DD	FLAT:__catch$??0?$vector@V?$Matrix@M$03$02$00@@V?$allocator@V?$Matrix@M$03$02$00@@@std@@@std@@QAE@I@Z$0
xdata$x	ENDS
;	COMDAT xdata$x
xdata$x	SEGMENT
__ehfuncinfo$??0?$vector@V?$Matrix@M$01$03$00@@V?$allocator@V?$Matrix@M$01$03$00@@@std@@@std@@QAE@I@Z DQ 00000000219930522r ; 4.45598e-314
	DD	FLAT:__unwindtable$??0?$vector@V?$Matrix@M$01$03$00@@V?$allocator@V?$Matrix@M$01$03$00@@@std@@@std@@QAE@I@Z
	DD	01H
	DD	FLAT:__tryblocktable$??0?$vector@V?$Matrix@M$01$03$00@@V?$allocator@V?$Matrix@M$01$03$00@@@std@@@std@@QAE@I@Z
	DQ	00000000000000000r		; 0
	DQ	00000000100000000r		; 2.122e-314
__unwindtable$??0?$vector@V?$Matrix@M$01$03$00@@V?$allocator@V?$Matrix@M$01$03$00@@@std@@@std@@QAE@I@Z DQ 000000000ffffffffr ; 2.122e-314
	DQ	000000000ffffffffr		; 2.122e-314
__tryblocktable$??0?$vector@V?$Matrix@M$01$03$00@@V?$allocator@V?$Matrix@M$01$03$00@@@std@@@std@@QAE@I@Z DQ 00000000000000000r ; 0
	DQ	00000000100000001r		; 2.122e-314
	DD	FLAT:__catchsym$??0?$vector@V?$Matrix@M$01$03$00@@V?$allocator@V?$Matrix@M$01$03$00@@@std@@@std@@QAE@I@Z$42
__catchsym$??0?$vector@V?$Matrix@M$01$03$00@@V?$allocator@V?$Matrix@M$01$03$00@@@std@@@std@@QAE@I@Z$42 DQ 00000000000000040r ; 3.16202e-322
	DD	00H
	DD	FLAT:__catch$??0?$vector@V?$Matrix@M$01$03$00@@V?$allocator@V?$Matrix@M$01$03$00@@@std@@@std@@QAE@I@Z$0
xdata$x	ENDS
;	COMDAT xdata$x
xdata$x	SEGMENT
__ehfuncinfo$??0?$vector@V?$Matrix@M$03$01$00@@V?$allocator@V?$Matrix@M$03$01$00@@@std@@@std@@QAE@I@Z DQ 00000000219930522r ; 4.45598e-314
	DD	FLAT:__unwindtable$??0?$vector@V?$Matrix@M$03$01$00@@V?$allocator@V?$Matrix@M$03$01$00@@@std@@@std@@QAE@I@Z
	DD	01H
	DD	FLAT:__tryblocktable$??0?$vector@V?$Matrix@M$03$01$00@@V?$allocator@V?$Matrix@M$03$01$00@@@std@@@std@@QAE@I@Z
	DQ	00000000000000000r		; 0
	DQ	00000000100000000r		; 2.122e-314
__unwindtable$??0?$vector@V?$Matrix@M$03$01$00@@V?$allocator@V?$Matrix@M$03$01$00@@@std@@@std@@QAE@I@Z DQ 000000000ffffffffr ; 2.122e-314
	DQ	000000000ffffffffr		; 2.122e-314
__tryblocktable$??0?$vector@V?$Matrix@M$03$01$00@@V?$allocator@V?$Matrix@M$03$01$00@@@std@@@std@@QAE@I@Z DQ 00000000000000000r ; 0
	DQ	00000000100000001r		; 2.122e-314
	DD	FLAT:__catchsym$??0?$vector@V?$Matrix@M$03$01$00@@V?$allocator@V?$Matrix@M$03$01$00@@@std@@@std@@QAE@I@Z$42
__catchsym$??0?$vector@V?$Matrix@M$03$01$00@@V?$allocator@V?$Matrix@M$03$01$00@@@std@@@std@@QAE@I@Z$42 DQ 00000000000000040r ; 3.16202e-322
	DD	00H
	DD	FLAT:__catch$??0?$vector@V?$Matrix@M$03$01$00@@V?$allocator@V?$Matrix@M$03$01$00@@@std@@@std@@QAE@I@Z$0
xdata$x	ENDS
;	COMDAT xdata$x
xdata$x	SEGMENT
__ehfuncinfo$??0?$vector@V?$Matrix@M$03$03$00@@V?$allocator@V?$Matrix@M$03$03$00@@@std@@@std@@QAE@I@Z DQ 00000000219930522r ; 4.45598e-314
	DD	FLAT:__unwindtable$??0?$vector@V?$Matrix@M$03$03$00@@V?$allocator@V?$Matrix@M$03$03$00@@@std@@@std@@QAE@I@Z
	DD	01H
	DD	FLAT:__tryblocktable$??0?$vector@V?$Matrix@M$03$03$00@@V?$allocator@V?$Matrix@M$03$03$00@@@std@@@std@@QAE@I@Z
	DQ	00000000000000000r		; 0
	DQ	00000000100000000r		; 2.122e-314
__unwindtable$??0?$vector@V?$Matrix@M$03$03$00@@V?$allocator@V?$Matrix@M$03$03$00@@@std@@@std@@QAE@I@Z DQ 000000000ffffffffr ; 2.122e-314
	DQ	000000000ffffffffr		; 2.122e-314
__tryblocktable$??0?$vector@V?$Matrix@M$03$03$00@@V?$allocator@V?$Matrix@M$03$03$00@@@std@@@std@@QAE@I@Z DQ 00000000000000000r ; 0
	DQ	00000000100000001r		; 2.122e-314
	DD	FLAT:__catchsym$??0?$vector@V?$Matrix@M$03$03$00@@V?$allocator@V?$Matrix@M$03$03$00@@@std@@@std@@QAE@I@Z$42
__catchsym$??0?$vector@V?$Matrix@M$03$03$00@@V?$allocator@V?$Matrix@M$03$03$00@@@std@@@std@@QAE@I@Z$42 DQ 00000000000000040r ; 3.16202e-322
	DD	00H
	DD	FLAT:__catch$??0?$vector@V?$Matrix@M$03$03$00@@V?$allocator@V?$Matrix@M$03$03$00@@@std@@@std@@QAE@I@Z$0
xdata$x	ENDS
;	COMDAT xdata$x
xdata$x	SEGMENT
__ehfuncinfo$??0?$vector@V?$Matrix@M$02$02$00@@V?$allocator@V?$Matrix@M$02$02$00@@@std@@@std@@QAE@I@Z DQ 00000000219930522r ; 4.45598e-314
	DD	FLAT:__unwindtable$??0?$vector@V?$Matrix@M$02$02$00@@V?$allocator@V?$Matrix@M$02$02$00@@@std@@@std@@QAE@I@Z
	DD	01H
	DD	FLAT:__tryblocktable$??0?$vector@V?$Matrix@M$02$02$00@@V?$allocator@V?$Matrix@M$02$02$00@@@std@@@std@@QAE@I@Z
	DQ	00000000000000000r		; 0
	DQ	00000000100000000r		; 2.122e-314
__unwindtable$??0?$vector@V?$Matrix@M$02$02$00@@V?$allocator@V?$Matrix@M$02$02$00@@@std@@@std@@QAE@I@Z DQ 000000000ffffffffr ; 2.122e-314
	DQ	000000000ffffffffr		; 2.122e-314
__tryblocktable$??0?$vector@V?$Matrix@M$02$02$00@@V?$allocator@V?$Matrix@M$02$02$00@@@std@@@std@@QAE@I@Z DQ 00000000000000000r ; 0
	DQ	00000000100000001r		; 2.122e-314
	DD	FLAT:__catchsym$??0?$vector@V?$Matrix@M$02$02$00@@V?$allocator@V?$Matrix@M$02$02$00@@@std@@@std@@QAE@I@Z$42
__catchsym$??0?$vector@V?$Matrix@M$02$02$00@@V?$allocator@V?$Matrix@M$02$02$00@@@std@@@std@@QAE@I@Z$42 DQ 00000000000000040r ; 3.16202e-322
	DD	00H
	DD	FLAT:__catch$??0?$vector@V?$Matrix@M$02$02$00@@V?$allocator@V?$Matrix@M$02$02$00@@@std@@@std@@QAE@I@Z$0
xdata$x	ENDS
;	COMDAT xdata$x
xdata$x	SEGMENT
__ehfuncinfo$??0?$vector@V?$Matrix@M$01$01$00@@V?$allocator@V?$Matrix@M$01$01$00@@@std@@@std@@QAE@I@Z DQ 00000000219930522r ; 4.45598e-314
	DD	FLAT:__unwindtable$??0?$vector@V?$Matrix@M$01$01$00@@V?$allocator@V?$Matrix@M$01$01$00@@@std@@@std@@QAE@I@Z
	DD	01H
	DD	FLAT:__tryblocktable$??0?$vector@V?$Matrix@M$01$01$00@@V?$allocator@V?$Matrix@M$01$01$00@@@std@@@std@@QAE@I@Z
	DQ	00000000000000000r		; 0
	DQ	00000000100000000r		; 2.122e-314
__unwindtable$??0?$vector@V?$Matrix@M$01$01$00@@V?$allocator@V?$Matrix@M$01$01$00@@@std@@@std@@QAE@I@Z DQ 000000000ffffffffr ; 2.122e-314
	DQ	000000000ffffffffr		; 2.122e-314
__tryblocktable$??0?$vector@V?$Matrix@M$01$01$00@@V?$allocator@V?$Matrix@M$01$01$00@@@std@@@std@@QAE@I@Z DQ 00000000000000000r ; 0
	DQ	00000000100000001r		; 2.122e-314
	DD	FLAT:__catchsym$??0?$vector@V?$Matrix@M$01$01$00@@V?$allocator@V?$Matrix@M$01$01$00@@@std@@@std@@QAE@I@Z$42
__catchsym$??0?$vector@V?$Matrix@M$01$01$00@@V?$allocator@V?$Matrix@M$01$01$00@@@std@@@std@@QAE@I@Z$42 DQ 00000000000000040r ; 3.16202e-322
	DD	00H
	DD	FLAT:__catch$??0?$vector@V?$Matrix@M$01$01$00@@V?$allocator@V?$Matrix@M$01$01$00@@@std@@@std@@QAE@I@Z$0
xdata$x	ENDS
END
